(lp0
(lp1
I1
aa(lp2
I2
aa(lp3
I3
aa(lp4
I4
aa(lp5
I5
aa(lp6
I6
aa(lp7
I7
aa(lp8
I8
aa(lp9
I9
aa(lp10
I10
aa(lp11
I11
aa(lp12
I12
aa(lp13
I13
aa(lp14
I14
aa(lp15
I15
aa(lp16
I16
aa(lp17
I17
aa(lp18
I18
aa(lp19
I19
aa(lp20
I20
aa(lp21
I21
aa(lp22
I22
aa(lp23
I23
aa(lp24
I24
aa(lp25
I25
aa(lp26
I26
aa(lp27
I27
aa(lp28
I28
aa(lp29
I29
aa(lp30
I30
aa(lp31
I31
aa(lp32
I32
aa(lp33
I33
aa(lp34
I34
aa(lp35
I35
aa(lp36
I36
aa(lp37
I37
aa(lp38
I38
aa(lp39
I39
aa(lp40
I40
aa(lp41
I41
aa(lp42
I42
aa(lp43
I43
aa(lp44
I44
aa(lp45
I45
aa(lp46
I46
aa(lp47
I47
aa(lp48
I48
aa(lp49
I49
aa(lp50
I50
aa(lp51
I51
aa(lp52
I52
aa(lp53
I53
aa(lp54
I54
aa(lp55
I55
aa(lp56
I56
aa(lp57
I57
aa(lp58
I58
aa(lp59
I59
aa(lp60
I60
aa(lp61
I61
aa(lp62
I62
aa(lp63
I63
aa(lp64
I64
aa(lp65
I65
aa(lp66
I66
aa(lp67
I67
aa(lp68
I68
aa(lp69
I69
aa(lp70
I70
aa(lp71
I71
aa(lp72
I72
aa(lp73
I73
aa(lp74
I74
aa(lp75
I75
aa(lp76
I76
aa(lp77
I77
aa(lp78
I78
aa(lp79
I79
aa(lp80
I80
aa(lp81
I81
aa(lp82
I82
aa(lp83
I83
aa(lp84
I84
aa(lp85
I85
aa(lp86
I86
aa(lp87
I87
aa(lp88
I88
aa(lp89
I89
aa(lp90
I90
aa(lp91
I91
aa(lp92
I92
aa(lp93
I93
aa(lp94
I94
aa(lp95
I95
aa(lp96
I96
aa(lp97
I97
aa(lp98
I98
aa(lp99
I99
aa(lp100
I100
aa(lp101
I101
aa(lp102
I102
aa(lp103
I103
aa(lp104
I104
aa(lp105
I105
aa(lp106
I106
aa(lp107
I107
aa(lp108
I108
aa(lp109
I109
aa(lp110
I110
aa(lp111
I111
aa(lp112
I112
aa(lp113
I113
aa(lp114
I114
aa(lp115
I115
aa(lp116
I116
aa(lp117
I117
aa(lp118
I118
aa(lp119
I119
aa(lp120
I120
aa(lp121
I121
aa(lp122
I122
aa(lp123
I123
aa(lp124
I124
aa(lp125
I125
aa(lp126
I126
aa(lp127
I127
aa(lp128
I128
aa(lp129
I129
aa(lp130
I130
aa(lp131
I131
aa(lp132
I132
aa(lp133
I133
aa(lp134
I134
aa(lp135
I135
aa(lp136
I136
aa(lp137
I137
aa(lp138
I138
aa(lp139
I139
aa(lp140
I140
aa(lp141
I141
aa(lp142
I142
aa(lp143
I143
aa(lp144
I144
aa(lp145
I145
aa(lp146
I146
aa(lp147
I147
aa(lp148
I148
aa(lp149
I149
aa(lp150
I150
aa(lp151
I151
aa(lp152
I152
aa(lp153
I153
aa(lp154
I154
aa(lp155
I155
aa(lp156
I156
aa(lp157
I157
aa(lp158
I158
aa(lp159
I159
aa(lp160
I160
aa(lp161
I161
aa(lp162
I162
aa(lp163
I163
aa(lp164
I164
aa(lp165
I165
aa(lp166
I166
aa(lp167
I167
aa(lp168
I168
aa(lp169
I169
aa(lp170
I170
aa(lp171
I171
aa(lp172
I172
aa(lp173
I173
aa(lp174
I174
aa(lp175
I175
aa(lp176
I176
aa(lp177
I177
aa(lp178
I178
aa(lp179
I179
aa(lp180
I180
aa(lp181
I181
aa(lp182
I182
aa(lp183
I183
aa(lp184
I184
aa(lp185
I185
aa(lp186
I186
aa(lp187
I187
aa(lp188
I188
aa(lp189
I189
aa(lp190
I190
aa(lp191
I191
aa(lp192
I192
aa(lp193
I193
aa(lp194
I194
aa(lp195
I195
aa(lp196
I196
aa(lp197
I197
aa(lp198
I198
aa(lp199
I199
aa(lp200
I200
aa(lp201
I201
aa(lp202
I202
aa(lp203
I203
aa(lp204
I204
aa(lp205
I205
aa(lp206
I206
aa(lp207
I207
aa(lp208
I208
aa(lp209
I209
aa(lp210
I210
aa(lp211
I211
aa(lp212
I212
aa(lp213
I213
aa(lp214
I214
aa(lp215
I215
aa(lp216
I216
aa(lp217
I217
aa(lp218
I218
aa(lp219
I219
aa(lp220
I220
aa(lp221
I221
aa(lp222
I222
aa(lp223
I223
aa(lp224
I224
aa(lp225
I225
aa(lp226
I226
aa(lp227
I227
aa(lp228
I228
aa(lp229
I229
aa(lp230
I230
aa(lp231
I231
aa(lp232
I232
aa(lp233
I233
aa(lp234
I234
aa(lp235
I235
aa(lp236
I236
aa(lp237
I237
aa(lp238
I238
aa(lp239
I239
aa(lp240
I240
aa(lp241
I241
aa(lp242
I242
aa(lp243
I243
aa(lp244
I244
aa(lp245
I245
aa(lp246
I246
aa(lp247
I247
aa(lp248
I248
aa(lp249
I249
aa(lp250
I250
aa(lp251
I251
aa(lp252
I252
aa(lp253
I253
aa(lp254
I254
aa(lp255
I255
aa(lp256
I256
aa(lp257
I257
aa(lp258
I258
aa(lp259
I259
aa(lp260
I260
aa(lp261
I261
aa(lp262
I262
aa(lp263
I263
aa(lp264
I264
aa(lp265
I265
aa(lp266
I266
aa(lp267
I267
aa(lp268
I268
aa(lp269
I269
aa(lp270
I270
aa(lp271
I271
aa(lp272
I272
aa(lp273
I273
aa(lp274
I274
aa(lp275
I275
aa(lp276
I276
aa(lp277
I277
aa(lp278
I278
aa(lp279
I279
aa(lp280
I280
aa(lp281
I281
aa(lp282
I282
aa(lp283
I283
aa(lp284
I284
aa(lp285
I285
aa(lp286
I286
aa(lp287
I287
aa(lp288
I288
aa(lp289
I289
aa(lp290
I290
aa(lp291
I291
aa(lp292
I292
aa(lp293
I293
aa(lp294
I294
aa(lp295
I295
aa(lp296
I296
aa(lp297
I297
aa(lp298
I298
aa(lp299
I299
aa(lp300
I300
aa(lp301
I301
aa(lp302
I302
aa(lp303
I303
aa(lp304
I304
aa(lp305
I305
aa(lp306
I306
aa(lp307
I307
aa(lp308
I308
aa(lp309
I309
aa(lp310
I310
aa(lp311
I311
aa(lp312
I312
aa(lp313
I313
aa(lp314
I314
aa(lp315
I315
aa(lp316
I316
aa(lp317
I317
aa(lp318
I318
aa(lp319
I319
aa(lp320
I320
aa(lp321
I321
aa(lp322
I322
aa(lp323
I323
aa(lp324
I324
aa(lp325
I325
aa(lp326
I326
aa(lp327
I327
aa(lp328
I328
aa(lp329
I329
aa(lp330
I330
aa(lp331
I331
aa(lp332
I332
aa(lp333
I333
aa(lp334
I334
aa(lp335
I335
aa(lp336
I336
aa(lp337
I337
aa(lp338
I338
aa(lp339
I339
aa(lp340
I340
aa(lp341
I341
aa(lp342
I342
aa(lp343
I343
aa(lp344
I344
aa(lp345
I345
aa(lp346
I346
aa(lp347
I347
aa(lp348
I348
aa(lp349
I349
aa(lp350
I350
aa(lp351
I351
aa(lp352
I352
aa(lp353
I353
aa(lp354
I354
aa(lp355
I355
aa(lp356
I356
aa(lp357
I357
aa(lp358
I358
aa(lp359
I359
aa(lp360
I360
aa(lp361
I361
aa(lp362
I362
aa(lp363
I363
aa(lp364
I364
aa(lp365
I365
aa(lp366
I366
aa(lp367
I367
aa(lp368
I368
aa(lp369
I369
aa(lp370
I370
aa(lp371
I371
aa(lp372
I372
aa(lp373
I373
aa(lp374
I374
aa(lp375
I375
aa(lp376
I376
aa(lp377
I377
aa(lp378
I378
aa(lp379
I379
aa(lp380
I380
aa(lp381
I381
aa(lp382
I382
aa(lp383
I383
aa(lp384
I384
aa(lp385
I385
aa(lp386
I386
aa(lp387
I387
aa(lp388
I388
aa(lp389
I389
aa(lp390
I390
aa(lp391
I391
aa(lp392
I392
aa(lp393
I393
aa(lp394
I394
aa(lp395
I395
aa(lp396
I396
aa(lp397
I397
aa(lp398
I398
aa(lp399
I399
aa(lp400
I400
aa(lp401
I401
aa(lp402
I402
aa(lp403
I403
aa(lp404
I404
aa(lp405
I405
aa(lp406
I406
aa(lp407
I407
aa(lp408
I408
aa(lp409
I409
aa(lp410
I410
aa(lp411
I411
aa(lp412
I412
aa(lp413
I413
aa(lp414
I414
aa(lp415
I415
aa(lp416
I416
aa(lp417
I417
aa(lp418
I418
aa(lp419
I419
aa(lp420
I420
aa(lp421
I421
aa(lp422
I422
aa(lp423
I423
aa(lp424
I424
aa(lp425
I425
aa(lp426
I426
aa(lp427
I427
aa(lp428
I428
aa(lp429
I429
aa(lp430
I430
aa(lp431
I431
aa(lp432
I432
aa(lp433
I433
aa(lp434
I434
aa(lp435
I435
aa(lp436
I436
aa(lp437
I437
aa(lp438
I438
aa(lp439
I439
aa(lp440
I440
aa(lp441
I441
aa(lp442
I442
aa(lp443
I443
aa(lp444
I444
aa(lp445
I445
aa(lp446
I446
aa(lp447
I447
aa(lp448
I448
aa(lp449
I449
aa(lp450
I450
aa(lp451
I451
aa(lp452
I452
aa(lp453
I453
aa(lp454
I454
aa(lp455
I455
aa(lp456
I456
aa(lp457
I457
aa(lp458
I458
aa(lp459
I459
aa(lp460
I460
aa(lp461
I461
aa(lp462
I462
aa(lp463
I463
aa(lp464
I464
aa(lp465
I465
aa(lp466
I466
aa(lp467
I467
aa(lp468
I468
aa(lp469
I469
aa(lp470
I470
aa(lp471
I471
aa(lp472
I472
aa(lp473
I473
aa(lp474
I474
aa(lp475
I475
aa(lp476
I476
aa(lp477
I477
aa(lp478
I478
aa(lp479
I479
aa(lp480
I480
aa(lp481
I481
aa(lp482
I482
aa(lp483
I483
aa(lp484
I484
aa(lp485
I485
aa(lp486
I486
aa(lp487
I487
aa(lp488
I488
aa(lp489
I489
aa(lp490
I490
aa(lp491
I491
aa(lp492
I492
aa(lp493
I493
aa(lp494
I494
aa(lp495
I495
aa(lp496
I496
aa(lp497
I497
aa(lp498
I498
aa(lp499
I499
aa(lp500
I500
aa(lp501
I501
aa(lp502
I502
aa(lp503
I503
aa(lp504
I504
aa(lp505
I505
aa(lp506
I506
aa(lp507
I507
aa(lp508
I508
aa(lp509
I509
aa(lp510
I510
aa(lp511
I511
aa(lp512
I512
aa(lp513
I513
aa(lp514
I514
aa(lp515
I515
aa(lp516
I516
aa(lp517
I517
aa(lp518
I518
aa(lp519
I519
aa(lp520
I520
aa(lp521
I521
aa(lp522
I522
aa(lp523
I523
aa(lp524
I524
aa(lp525
I525
aa(lp526
I526
aa(lp527
I527
aa(lp528
I528
aa(lp529
I529
aa(lp530
I530
aa(lp531
I531
aa(lp532
I532
aa(lp533
I533
aa(lp534
I534
aa(lp535
I535
aa(lp536
I536
aa(lp537
I537
aa(lp538
I538
aa(lp539
I539
aa(lp540
I540
aa(lp541
I541
aa(lp542
I542
aa(lp543
I543
aa(lp544
I544
aa(lp545
I545
aa(lp546
I546
aa(lp547
I547
aa(lp548
I548
aa(lp549
I549
aa(lp550
I550
aa(lp551
I551
aa(lp552
I552
aa(lp553
I553
aa(lp554
I554
aa(lp555
I555
aa(lp556
I556
aa(lp557
I557
aa(lp558
I558
aa(lp559
I559
aa(lp560
I560
aa(lp561
I561
aa(lp562
I562
aa(lp563
I563
aa(lp564
I564
aa(lp565
I565
aa(lp566
I566
aa(lp567
I567
aa(lp568
I568
aa(lp569
I569
aa(lp570
I570
aa(lp571
I571
aa(lp572
I572
aa(lp573
I573
aa(lp574
I574
aa(lp575
I575
aa(lp576
I576
aa(lp577
I577
aa(lp578
I578
aa(lp579
I579
aa(lp580
I580
aa(lp581
I581
aa(lp582
I582
aa(lp583
I583
aa(lp584
I584
aa(lp585
I585
aa(lp586
I586
aa(lp587
I587
aa(lp588
I588
aa(lp589
I589
aa(lp590
I590
aa(lp591
I591
aa(lp592
I592
aa(lp593
I593
aa(lp594
I594
aa(lp595
I595
aa(lp596
I596
aa(lp597
I597
aa(lp598
I598
aa(lp599
I599
aa(lp600
I600
aa(lp601
I601
aa(lp602
I602
aa(lp603
I603
aa(lp604
I604
aa(lp605
I605
aa(lp606
I606
aa(lp607
I607
aa(lp608
I608
aa(lp609
I609
aa(lp610
I610
aa(lp611
I611
aa(lp612
I612
aa(lp613
I613
aa(lp614
I614
aa(lp615
I615
aa(lp616
I616
aa(lp617
I617
aa(lp618
I618
aa(lp619
I619
aa(lp620
I620
aa(lp621
I621
aa(lp622
I622
aa(lp623
I623
aa(lp624
I624
aa(lp625
I625
aa(lp626
I626
aa(lp627
I627
aa(lp628
I628
aa(lp629
I629
aa(lp630
I630
aa(lp631
I631
aa(lp632
I632
aa(lp633
I633
aa(lp634
I634
aa(lp635
I635
aa(lp636
I636
aa(lp637
I637
aa(lp638
I638
aa(lp639
I639
aa(lp640
I640
aa(lp641
I641
aa(lp642
I642
aa(lp643
I643
aa(lp644
I644
aa(lp645
I645
aa(lp646
I646
aa(lp647
I647
aa(lp648
I648
aa(lp649
I649
aa(lp650
I650
aa(lp651
I651
aa(lp652
I652
aa(lp653
I653
aa(lp654
I654
aa(lp655
I655
aa(lp656
I656
aa(lp657
I657
aa(lp658
I658
aa(lp659
I659
aa(lp660
I660
aa(lp661
I661
aa(lp662
I662
aa(lp663
I663
aa(lp664
I664
aa(lp665
I665
aa(lp666
I666
aa(lp667
I667
aa(lp668
I668
aa(lp669
I669
aa(lp670
I670
aa(lp671
I671
aa(lp672
I672
aa(lp673
I673
aa(lp674
I674
aa(lp675
I675
aa(lp676
I676
aa(lp677
I677
aa(lp678
I678
aa(lp679
I679
aa(lp680
I680
aa(lp681
I681
aa(lp682
I682
aa(lp683
I683
aa(lp684
I684
aa(lp685
I685
aa(lp686
I686
aa(lp687
I687
aa(lp688
I688
aa(lp689
I689
aa(lp690
I690
aa(lp691
I691
aa(lp692
I692
aa(lp693
I693
aa(lp694
I694
aa(lp695
I695
aa(lp696
I696
aa(lp697
I697
aa(lp698
I698
aa(lp699
I699
aa(lp700
I700
aa(lp701
I701
aa(lp702
I702
aa(lp703
I703
aa(lp704
I704
aa(lp705
I705
aa(lp706
I706
aa(lp707
I707
aa(lp708
I708
aa(lp709
I709
aa(lp710
I710
aa(lp711
I711
aa(lp712
I712
aa(lp713
I713
aa(lp714
I714
aa(lp715
I715
aa(lp716
I716
aa(lp717
I717
aa(lp718
I718
aa(lp719
I719
aa(lp720
I720
aa(lp721
I721
aa(lp722
I722
aa(lp723
I723
aa(lp724
I724
aa(lp725
I725
aa(lp726
I726
aa(lp727
I727
aa(lp728
I728
aa(lp729
I729
aa(lp730
I730
aa(lp731
I731
aa(lp732
I732
aa(lp733
I733
aa(lp734
I734
aa(lp735
I735
aa(lp736
I736
aa(lp737
I737
aa(lp738
I738
aa(lp739
I739
aa(lp740
I740
aa(lp741
I741
aa(lp742
I742
aa(lp743
I743
aa(lp744
I744
aa(lp745
I745
aa(lp746
I746
aa(lp747
I747
aa(lp748
I748
aa(lp749
I749
aa(lp750
I750
aa(lp751
I751
aa(lp752
I752
aa(lp753
I753
aa(lp754
I754
aa(lp755
I755
aa(lp756
I756
aa(lp757
I757
aa(lp758
I758
aa(lp759
I759
aa(lp760
I760
aa(lp761
I761
aa(lp762
I762
aa(lp763
I763
aa(lp764
I764
aa(lp765
I765
aa(lp766
I766
aa(lp767
I767
aa(lp768
I768
aa(lp769
I769
aa(lp770
I770
aa(lp771
I771
aa(lp772
I772
aa(lp773
I773
aa(lp774
I774
aa(lp775
I775
aa(lp776
I776
aa(lp777
I777
aa(lp778
I778
aa(lp779
I779
aa(lp780
I780
aa(lp781
I781
aa(lp782
I782
aa(lp783
I783
aa(lp784
I784
aa(lp785
I785
aa(lp786
I786
aa(lp787
I787
aa(lp788
I788
aa(lp789
I789
aa(lp790
I790
aa(lp791
I791
aa(lp792
I792
aa(lp793
I793
aa(lp794
I794
aa(lp795
I795
aa(lp796
I796
aa(lp797
I797
aa(lp798
I798
aa(lp799
I799
aa(lp800
I800
aa(lp801
I801
aa(lp802
I802
aa(lp803
I803
aa(lp804
I804
aa(lp805
I805
aa(lp806
I806
aa(lp807
I807
aa(lp808
I808
aa(lp809
I809
aa(lp810
I810
aa(lp811
I811
aa(lp812
I812
aa(lp813
I813
aa(lp814
I814
aa(lp815
I815
aa(lp816
I816
aa(lp817
I817
aa(lp818
I818
aa(lp819
I819
aa(lp820
I820
aa(lp821
I821
aa(lp822
I822
aa(lp823
I823
aa(lp824
I824
aa(lp825
I825
aa(lp826
I826
aa(lp827
I827
aa(lp828
I828
aa(lp829
I829
aa(lp830
I830
aa(lp831
I831
aa(lp832
I832
aa(lp833
I833
aa(lp834
I834
aa(lp835
I835
aa(lp836
I836
aa(lp837
I837
aa(lp838
I838
aa(lp839
I839
aa(lp840
I840
aa(lp841
I841
aa(lp842
I842
aa(lp843
I843
aa(lp844
I844
aa(lp845
I845
aa(lp846
I846
aa(lp847
I847
aa(lp848
I848
aa(lp849
I849
aa(lp850
I850
aa(lp851
I851
aa(lp852
I852
aa(lp853
I853
aa(lp854
I854
aa(lp855
I855
aa(lp856
I856
aa(lp857
I857
aa(lp858
I858
aa(lp859
I859
aa(lp860
I860
aa(lp861
I861
aa(lp862
I862
aa(lp863
I863
aa(lp864
I864
aa(lp865
I865
aa(lp866
I866
aa(lp867
I867
aa(lp868
I868
aa(lp869
I869
aa(lp870
I870
aa(lp871
I871
aa(lp872
I872
aa(lp873
I873
aa(lp874
I874
aa(lp875
I875
aa(lp876
I876
aa(lp877
I877
aa(lp878
I878
aa(lp879
I879
aa(lp880
I880
aa(lp881
I881
aa(lp882
I882
aa(lp883
I883
aa(lp884
I884
aa(lp885
I885
aa(lp886
I886
aa(lp887
I887
aa(lp888
I888
aa(lp889
I889
aa(lp890
I890
aa(lp891
I891
aa(lp892
I892
aa(lp893
I893
aa(lp894
I894
aa(lp895
I895
aa(lp896
I896
aa(lp897
I897
aa(lp898
I898
aa(lp899
I899
aa(lp900
I900
aa(lp901
I901
aa(lp902
I902
aa(lp903
I903
aa(lp904
I904
aa(lp905
I905
aa(lp906
I906
aa(lp907
I907
aa(lp908
I908
aa(lp909
I909
aa(lp910
I910
aa(lp911
I911
aa(lp912
I912
aa(lp913
I913
aa(lp914
I914
aa(lp915
I915
aa(lp916
I916
aa(lp917
I917
aa(lp918
I918
aa(lp919
I919
aa(lp920
I920
aa(lp921
I921
aa(lp922
I922
aa(lp923
I923
aa(lp924
I924
aa(lp925
I925
aa(lp926
I926
aa(lp927
I927
aa(lp928
I928
aa(lp929
I929
aa(lp930
I930
aa(lp931
I931
aa(lp932
I932
aa(lp933
I933
aa(lp934
I934
aa(lp935
I935
aa(lp936
I936
aa(lp937
I937
aa(lp938
I938
aa(lp939
I939
aa(lp940
I940
aa(lp941
I941
aa(lp942
I942
aa(lp943
I943
aa(lp944
I944
aa(lp945
I945
aa(lp946
I946
aa(lp947
I947
aa(lp948
I948
aa(lp949
I949
aa(lp950
I950
aa(lp951
I951
aa(lp952
I952
aa(lp953
I953
aa(lp954
I954
aa(lp955
I955
aa(lp956
I956
aa(lp957
I957
aa(lp958
I958
aa(lp959
I959
aa(lp960
I960
aa(lp961
I961
aa(lp962
I962
aa(lp963
I963
aa(lp964
I964
aa(lp965
I965
aa(lp966
I966
aa(lp967
I967
aa(lp968
I968
aa(lp969
I969
aa(lp970
I970
aa(lp971
I971
aa(lp972
I972
aa(lp973
I973
aa(lp974
I974
aa(lp975
I975
aa(lp976
I976
aa(lp977
I977
aa(lp978
I978
aa(lp979
I979
aa(lp980
I980
aa(lp981
I981
aa(lp982
I982
aa(lp983
I983
aa(lp984
I984
aa(lp985
I985
aa(lp986
I986
aa(lp987
I987
aa(lp988
I988
aa(lp989
I989
aa(lp990
I990
aa(lp991
I991
aa(lp992
I992
aa(lp993
I993
aa(lp994
I994
aa(lp995
I995
aa(lp996
I996
aa(lp997
I997
aa(lp998
I998
aa(lp999
I999
aa(lp1000
I1000
aa(lp1001
I1001
aa(lp1002
I1002
aa(lp1003
I1003
aa(lp1004
I1004
aa(lp1005
I1005
aa(lp1006
I1006
aa(lp1007
I1007
aa(lp1008
I1008
aa(lp1009
I1009
aa(lp1010
I1010
aa(lp1011
I1011
aa(lp1012
I1012
aa(lp1013
I1013
aa(lp1014
I1014
aa(lp1015
I1015
aa(lp1016
I1016
aa(lp1017
I1017
aa(lp1018
I1018
aa(lp1019
I1019
aa(lp1020
I1020
aa(lp1021
I1021
aa(lp1022
I1022
aa(lp1023
I1023
aa(lp1024
I1024
aa(lp1025
I1025
aa(lp1026
I1026
aa(lp1027
I1027
aa(lp1028
I1028
aa(lp1029
I1029
aa(lp1030
I1030
aa(lp1031
I1031
aa(lp1032
I1032
aa(lp1033
I1033
aa(lp1034
I1034
aa(lp1035
I1035
aa(lp1036
I1036
aa(lp1037
I1037
aa(lp1038
I1038
aa(lp1039
I1039
aa(lp1040
I1040
aa(lp1041
I1041
aa(lp1042
I1042
aa(lp1043
I1043
aa(lp1044
I1044
aa(lp1045
I1045
aa(lp1046
I1046
aa(lp1047
I1047
aa(lp1048
I1048
aa(lp1049
I1049
aa(lp1050
I1050
aa(lp1051
I1051
aa(lp1052
I1052
aa(lp1053
I1053
aa(lp1054
I1054
aa(lp1055
I1055
aa(lp1056
I1056
aa(lp1057
I1057
aa(lp1058
I1058
aa(lp1059
I1059
aa(lp1060
I1060
aa(lp1061
I1061
aa(lp1062
I1062
aa(lp1063
I1063
aa(lp1064
I1064
aa(lp1065
I1065
aa(lp1066
I1066
aa(lp1067
I1067
aa(lp1068
I1068
aa(lp1069
I1069
aa(lp1070
I1070
aa(lp1071
I1071
aa(lp1072
I1072
aa(lp1073
I1073
aa(lp1074
I1074
aa(lp1075
I1075
aa(lp1076
I1076
aa(lp1077
I1077
aa(lp1078
I1078
aa(lp1079
I1079
aa(lp1080
I1080
aa(lp1081
I1081
aa(lp1082
I1082
aa(lp1083
I1083
aa(lp1084
I1084
aa(lp1085
I1085
aa(lp1086
I1086
aa(lp1087
I1087
aa(lp1088
I1088
aa(lp1089
I1089
aa(lp1090
I1090
aa(lp1091
I1091
aa(lp1092
I1092
aa(lp1093
I1093
aa(lp1094
I1094
aa(lp1095
I1095
aa(lp1096
I1096
aa(lp1097
I1097
aa(lp1098
I1098
aa(lp1099
I1099
aa(lp1100
I1100
aa(lp1101
I1101
aa(lp1102
I1102
aa(lp1103
I1103
aa(lp1104
I1104
aa(lp1105
I1105
aa(lp1106
I1106
aa(lp1107
I1107
aa(lp1108
I1108
aa(lp1109
I1109
aa(lp1110
I1110
aa(lp1111
I1111
aa(lp1112
I1112
aa(lp1113
I1113
aa(lp1114
I1114
aa(lp1115
I1115
aa(lp1116
I1116
aa(lp1117
I1117
aa(lp1118
I1118
aa(lp1119
I1119
aa(lp1120
I1120
aa(lp1121
I1121
aa(lp1122
I1122
aa(lp1123
I1123
aa(lp1124
I1124
aa(lp1125
I1125
aa(lp1126
I1126
aa(lp1127
I1127
aa(lp1128
I1128
aa(lp1129
I1129
aa(lp1130
I1130
aa(lp1131
I1131
aa(lp1132
I1132
aa(lp1133
I1133
aa(lp1134
I1134
aa(lp1135
I1135
aa(lp1136
I1136
aa(lp1137
I1137
aa(lp1138
I1138
aa(lp1139
I1139
aa(lp1140
I1140
aa(lp1141
I1141
aa(lp1142
I1142
aa(lp1143
I1143
aa(lp1144
I1144
aa(lp1145
I1145
aa(lp1146
I1146
aa(lp1147
I1147
aa(lp1148
I1148
aa(lp1149
I1149
aa(lp1150
I1150
aa(lp1151
I1151
aa(lp1152
I1152
aa(lp1153
I1153
aa(lp1154
I1154
aa(lp1155
I1155
aa(lp1156
I1156
aa(lp1157
I1157
aa(lp1158
I1158
aa(lp1159
I1159
aa(lp1160
I1160
aa(lp1161
I1161
aa(lp1162
I1162
aa(lp1163
I1163
aa(lp1164
I1164
aa(lp1165
I1165
aa(lp1166
I1166
aa(lp1167
I1167
aa(lp1168
I1168
aa(lp1169
I1169
aa(lp1170
I1170
aa(lp1171
I1171
aa(lp1172
I1172
aa(lp1173
I1173
aa(lp1174
I1174
aa(lp1175
I1175
aa(lp1176
I1176
aa(lp1177
I1177
aa(lp1178
I1178
aa(lp1179
I1179
aa(lp1180
I1180
aa(lp1181
I1181
aa(lp1182
I1182
aa(lp1183
I1183
aa(lp1184
I1184
aa(lp1185
I1185
aa(lp1186
I1186
aa(lp1187
I1187
aa(lp1188
I1188
aa(lp1189
I1189
aa(lp1190
I1190
aa(lp1191
I1191
aa(lp1192
I1192
aa(lp1193
I1193
aa(lp1194
I1194
aa(lp1195
I1195
aa(lp1196
I1196
aa(lp1197
I1197
aa(lp1198
I1198
aa(lp1199
I1199
aa(lp1200
I1200
aa(lp1201
I1201
aa(lp1202
I1202
aa(lp1203
I1203
aa(lp1204
I1204
aa(lp1205
I1205
aa(lp1206
I1206
aa(lp1207
I1207
aa(lp1208
I1208
aa(lp1209
I1209
aa(lp1210
I1210
aa(lp1211
I1211
aa(lp1212
I1212
aa(lp1213
I1213
aa(lp1214
I1214
aa(lp1215
I1215
aa(lp1216
I1216
aa(lp1217
I1217
aa(lp1218
I1218
aa(lp1219
I1219
aa(lp1220
I1220
aa(lp1221
I1221
aa(lp1222
I1222
aa(lp1223
I1223
aa(lp1224
I1224
aa(lp1225
I1225
aa(lp1226
I1226
aa(lp1227
I1227
aa(lp1228
I1228
aa(lp1229
I1229
aa(lp1230
I1230
aa(lp1231
I1231
aa(lp1232
I1232
aa(lp1233
I1233
aa(lp1234
I1234
aa(lp1235
I1235
aa(lp1236
I1236
aa(lp1237
I1237
aa(lp1238
I1238
aa(lp1239
I1239
aa(lp1240
I1240
aa(lp1241
I1241
aa(lp1242
I1242
aa(lp1243
I1243
aa(lp1244
I1244
aa(lp1245
I1245
aa(lp1246
I1246
aa(lp1247
I1247
aa(lp1248
I1248
aa(lp1249
I1249
aa(lp1250
I1250
aa(lp1251
I1251
aa(lp1252
I1252
aa(lp1253
I1253
aa(lp1254
I1254
aa(lp1255
I1255
aa(lp1256
I1256
aa(lp1257
I1257
aa(lp1258
I1258
aa(lp1259
I1259
aa(lp1260
I1260
aa(lp1261
I1261
aa(lp1262
I1262
aa(lp1263
I1263
aa(lp1264
I1264
aa(lp1265
I1265
aa(lp1266
I1266
aa(lp1267
I1267
aa(lp1268
I1268
aa(lp1269
I1269
aa(lp1270
I1270
aa(lp1271
I1271
aa(lp1272
I1272
aa(lp1273
I1273
aa(lp1274
I1274
aa(lp1275
I1275
aa(lp1276
I1276
aa(lp1277
I1277
aa(lp1278
I1278
aa(lp1279
I1279
aa(lp1280
I1280
aa(lp1281
I1281
aa(lp1282
I1282
aa(lp1283
I1283
aa(lp1284
I1284
aa(lp1285
I1285
aa(lp1286
I1286
aa(lp1287
I1287
aa(lp1288
I1288
aa(lp1289
I1289
aa(lp1290
I1290
aa(lp1291
I1291
aa(lp1292
I1292
aa(lp1293
I1293
aa(lp1294
I1294
aa(lp1295
I1295
aa(lp1296
I1296
aa(lp1297
I1297
aa(lp1298
I1298
aa(lp1299
I1299
aa(lp1300
I1300
aa(lp1301
I1301
aa(lp1302
I1302
aa(lp1303
I1303
aa(lp1304
I1304
aa(lp1305
I1305
aa(lp1306
I1306
aa(lp1307
I1307
aa(lp1308
I1308
aa(lp1309
I1309
aa(lp1310
I1310
aa(lp1311
I1311
aa(lp1312
I1312
aa(lp1313
I1313
aa(lp1314
I1314
aa(lp1315
I1315
aa(lp1316
I1316
aa(lp1317
I1317
aa(lp1318
I1318
aa(lp1319
I1319
aa(lp1320
I1320
aa(lp1321
I1321
aa(lp1322
I1322
aa(lp1323
I1323
aa(lp1324
I1324
aa(lp1325
I1325
aa(lp1326
I1326
aa(lp1327
I1327
aa(lp1328
I1328
aa(lp1329
I1329
aa(lp1330
I1330
aa(lp1331
I1331
aa(lp1332
I1332
aa(lp1333
I1333
aa(lp1334
I1334
aa(lp1335
I1335
aa(lp1336
I1336
aa(lp1337
I1337
aa(lp1338
I1338
aa(lp1339
I1339
aa(lp1340
I1340
aa(lp1341
I1341
aa(lp1342
I1342
aa(lp1343
I1343
aa(lp1344
I1344
aa(lp1345
I1345
aa(lp1346
I1346
aa(lp1347
I1347
aa(lp1348
I1348
aa(lp1349
I1349
aa(lp1350
I1350
aa(lp1351
I1351
aa(lp1352
I1352
aa(lp1353
I1353
aa(lp1354
I1354
aa(lp1355
I1355
aa(lp1356
I1356
aa(lp1357
I1357
aa(lp1358
I1358
aa(lp1359
I1359
aa(lp1360
I1360
aa(lp1361
I1361
aa(lp1362
I1362
aa(lp1363
I1363
aa(lp1364
I1364
aa(lp1365
I1365
aa(lp1366
I1366
aa(lp1367
I1367
aa(lp1368
I1368
aa(lp1369
I1369
aa(lp1370
I1370
aa(lp1371
I1371
aa(lp1372
I1372
aa(lp1373
I1373
aa(lp1374
I1374
aa(lp1375
I1375
aa(lp1376
I1376
aa(lp1377
I1377
aa(lp1378
I1378
aa(lp1379
I1379
aa(lp1380
I1380
aa(lp1381
I1381
aa(lp1382
I1382
aa(lp1383
I1383
aa(lp1384
I1384
aa(lp1385
I1385
aa(lp1386
I1386
aa(lp1387
I1387
aa(lp1388
I1388
aa(lp1389
I1389
aa(lp1390
I1390
aa(lp1391
I1391
aa(lp1392
I1392
aa(lp1393
I1393
aa(lp1394
I1394
aa(lp1395
I1395
aa(lp1396
I1396
aa(lp1397
I1397
aa(lp1398
I1398
aa(lp1399
I1399
aa(lp1400
I1400
aa(lp1401
I1401
aa(lp1402
I1402
aa(lp1403
I1403
aa(lp1404
I1404
aa(lp1405
I1405
aa(lp1406
I1406
aa(lp1407
I1407
aa(lp1408
I1408
aa(lp1409
I1409
aa(lp1410
I1410
aa(lp1411
I1411
aa(lp1412
I1412
aa(lp1413
I1413
aa(lp1414
I1414
aa(lp1415
I1415
aa(lp1416
I1416
aa(lp1417
I1417
aa(lp1418
I1418
aa(lp1419
I1419
aa(lp1420
I1420
aa(lp1421
I1421
aa(lp1422
I1422
aa(lp1423
I1423
aa(lp1424
I1424
aa(lp1425
I1425
aa(lp1426
I1426
aa(lp1427
I1427
aa(lp1428
I1428
aa(lp1429
I1429
aa(lp1430
I1430
aa(lp1431
I1431
aa(lp1432
I1432
aa(lp1433
I1433
aa(lp1434
I1434
aa(lp1435
I1435
aa(lp1436
I1436
aa(lp1437
I1437
aa(lp1438
I1438
aa(lp1439
I1439
aa(lp1440
I1440
aa(lp1441
I1441
aa(lp1442
I1442
aa(lp1443
I1443
aa(lp1444
I1444
aa(lp1445
I1445
aa(lp1446
I1446
aa(lp1447
I1447
aa(lp1448
I1448
aa(lp1449
I1449
aa(lp1450
I1450
aa(lp1451
I1451
aa(lp1452
I1452
aa(lp1453
I1453
aa(lp1454
I1454
aa(lp1455
I1455
aa(lp1456
I1456
aa(lp1457
I1457
aa(lp1458
I1458
aa(lp1459
I1459
aa(lp1460
I1460
aa(lp1461
I1461
aa(lp1462
I1462
aa(lp1463
I1463
aa(lp1464
I1464
aa(lp1465
I1465
aa(lp1466
I1466
aa(lp1467
I1467
aa(lp1468
I1468
aa(lp1469
I1469
aa(lp1470
I1470
aa(lp1471
I1471
aa(lp1472
I1472
aa(lp1473
I1473
aa(lp1474
I1474
aa(lp1475
I1475
aa(lp1476
I1476
aa(lp1477
I1477
aa(lp1478
I1478
aa(lp1479
I1479
aa(lp1480
I1480
aa(lp1481
I1481
aa(lp1482
I1482
aa(lp1483
I1483
aa(lp1484
I1484
aa(lp1485
I1485
aa(lp1486
I1486
aa(lp1487
I1487
aa(lp1488
I1488
aa(lp1489
I1489
aa(lp1490
I1490
aa(lp1491
I1491
aa(lp1492
I1492
aa(lp1493
I1493
aa(lp1494
I1494
aa(lp1495
I1495
aa(lp1496
I1496
aa(lp1497
I1497
aa(lp1498
I1498
aa(lp1499
I1499
aa(lp1500
I1500
aa(lp1501
I1501
aa(lp1502
I1502
aa(lp1503
I1503
aa(lp1504
I1504
aa(lp1505
I1505
aa(lp1506
I1506
aa(lp1507
I1507
aa(lp1508
I1508
aa(lp1509
I1509
aa(lp1510
I1510
aa(lp1511
I1511
aa(lp1512
I1512
aa(lp1513
I1513
aa(lp1514
I1514
aa(lp1515
I1515
aa(lp1516
I1516
aa(lp1517
I1517
aa(lp1518
I1518
aa(lp1519
I1519
aa(lp1520
I1520
aa(lp1521
I1521
aa(lp1522
I1522
aa(lp1523
I1523
aa(lp1524
I1524
aa(lp1525
I1525
aa(lp1526
I1526
aa(lp1527
I1527
aa(lp1528
I1528
aa(lp1529
I1529
aa(lp1530
I1530
aa(lp1531
I1531
aa(lp1532
I1532
aa(lp1533
I1533
aa(lp1534
I1534
aa(lp1535
I1535
aa(lp1536
I1536
aa(lp1537
I1537
aa(lp1538
I1538
aa(lp1539
I1539
aa(lp1540
I1540
aa(lp1541
I1541
aa(lp1542
I1542
aa(lp1543
I1543
aa(lp1544
I1544
aa(lp1545
I1545
aa(lp1546
I1546
aa(lp1547
I1547
aa(lp1548
I1548
aa(lp1549
I1549
aa(lp1550
I1550
aa(lp1551
I1551
aa(lp1552
I1552
aa(lp1553
I1553
aa(lp1554
I1554
aa(lp1555
I1555
aa(lp1556
I1556
aa(lp1557
I1557
aa(lp1558
I1558
aa(lp1559
I1559
aa(lp1560
I1560
aa(lp1561
I1561
aa(lp1562
I1562
aa(lp1563
I1563
aa(lp1564
I1564
aa(lp1565
I1565
aa(lp1566
I1566
aa(lp1567
I1567
aa(lp1568
I1568
aa(lp1569
I1569
aa(lp1570
I1570
aa(lp1571
I1571
aa(lp1572
I1572
aa(lp1573
I1573
aa(lp1574
I1574
aa(lp1575
I1575
aa(lp1576
I1576
aa(lp1577
I1577
aa(lp1578
I1578
aa(lp1579
I1579
aa(lp1580
I1580
aa(lp1581
I1581
aa(lp1582
I1582
aa(lp1583
I1583
aa(lp1584
I1584
aa(lp1585
I1585
aa(lp1586
I1586
aa(lp1587
I1587
aa(lp1588
I1588
aa(lp1589
I1589
aa(lp1590
I1590
aa(lp1591
I1591
aa(lp1592
I1592
aa(lp1593
I1593
aa(lp1594
I1594
aa(lp1595
I1595
aa(lp1596
I1596
aa(lp1597
I1597
aa(lp1598
I1598
aa(lp1599
I1599
aa(lp1600
I1600
aa(lp1601
I1601
aa(lp1602
I1602
aa(lp1603
I1603
aa(lp1604
I1604
aa(lp1605
I1605
aa(lp1606
I1606
aa(lp1607
I1607
aa(lp1608
I1608
aa(lp1609
I1609
aa(lp1610
I1610
aa(lp1611
I1611
aa(lp1612
I1612
aa(lp1613
I1613
aa(lp1614
I1614
aa(lp1615
I1615
aa(lp1616
I1616
aa(lp1617
I1617
aa(lp1618
I1618
aa(lp1619
I1619
aa(lp1620
I1620
aa(lp1621
I1621
aa(lp1622
I1622
aa(lp1623
I1623
aa(lp1624
I1624
aa(lp1625
I1625
aa(lp1626
I1626
aa(lp1627
I1627
aa(lp1628
I1628
aa(lp1629
I1629
aa(lp1630
I1630
aa(lp1631
I1631
aa(lp1632
I1632
aa(lp1633
I1633
aa(lp1634
I1634
aa(lp1635
I1635
aa(lp1636
I1636
aa(lp1637
I1637
aa(lp1638
I1638
aa(lp1639
I1639
aa(lp1640
I1640
aa(lp1641
I1641
aa(lp1642
I1642
aa(lp1643
I1643
aa(lp1644
I1644
aa(lp1645
I1645
aa(lp1646
I1646
aa(lp1647
I1647
aa(lp1648
I1648
aa(lp1649
I1649
aa(lp1650
I1650
aa(lp1651
I1651
aa(lp1652
I1652
aa(lp1653
I1653
aa(lp1654
I1654
aa(lp1655
I1655
aa(lp1656
I1656
aa(lp1657
I1657
aa(lp1658
I1658
aa(lp1659
I1659
aa(lp1660
I1660
aa(lp1661
I1661
aa(lp1662
I1662
aa(lp1663
I1663
aa(lp1664
I1664
aa(lp1665
I1665
aa(lp1666
I1666
aa(lp1667
I1667
aa(lp1668
I1668
aa(lp1669
I1669
aa(lp1670
I1670
aa(lp1671
I1671
aa(lp1672
I1672
aa(lp1673
I1673
aa(lp1674
I1674
aa(lp1675
I1675
aa(lp1676
I1676
aa(lp1677
I1677
aa(lp1678
I1678
aa(lp1679
I1679
aa(lp1680
I1680
aa(lp1681
I1681
aa(lp1682
I1682
aa(lp1683
I1683
aa(lp1684
I1684
aa(lp1685
I1685
aa(lp1686
I1686
aa(lp1687
I1687
aa(lp1688
I1688
aa(lp1689
I1689
aa(lp1690
I1690
aa(lp1691
I1691
aa(lp1692
I1692
aa(lp1693
I1693
aa(lp1694
I1694
aa(lp1695
I1695
aa(lp1696
I1696
aa(lp1697
I1697
aa(lp1698
I1698
aa(lp1699
I1699
aa(lp1700
I1700
aa(lp1701
I1701
aa(lp1702
I1702
aa(lp1703
I1703
aa(lp1704
I1704
aa(lp1705
I1705
aa(lp1706
I1706
aa(lp1707
I1707
aa(lp1708
I1708
aa(lp1709
I1709
aa(lp1710
I1710
aa(lp1711
I1711
aa(lp1712
I1712
aa(lp1713
I1713
aa(lp1714
I1714
aa(lp1715
I1715
aa(lp1716
I1716
aa(lp1717
I1717
aa(lp1718
I1718
aa(lp1719
I1719
aa(lp1720
I1720
aa(lp1721
I1721
aa(lp1722
I1722
aa(lp1723
I1723
aa(lp1724
I1724
aa(lp1725
I1725
aa(lp1726
I1726
aa(lp1727
I1727
aa(lp1728
I1728
aa(lp1729
I1729
aa(lp1730
I1730
aa(lp1731
I1731
aa(lp1732
I1732
aa(lp1733
I1733
aa(lp1734
I1734
aa(lp1735
I1735
aa(lp1736
I1736
aa(lp1737
I1737
aa(lp1738
I1738
aa(lp1739
I1739
aa(lp1740
I1740
aa(lp1741
I1741
aa(lp1742
I1742
aa(lp1743
I1743
aa(lp1744
I1744
aa(lp1745
I1745
aa(lp1746
I1746
aa(lp1747
I1747
aa(lp1748
I1748
aa(lp1749
I1749
aa(lp1750
I1750
aa(lp1751
I1751
aa(lp1752
I1752
aa(lp1753
I1753
aa(lp1754
I1754
aa(lp1755
I1755
aa(lp1756
I1756
aa(lp1757
I1757
aa(lp1758
I1758
aa(lp1759
I1759
aa(lp1760
I1760
aa(lp1761
I1761
aa(lp1762
I1762
aa(lp1763
I1763
aa(lp1764
I1764
aa(lp1765
I1765
aa(lp1766
I1766
aa(lp1767
I1767
aa(lp1768
I1768
aa(lp1769
I1769
aa(lp1770
I1770
aa(lp1771
I1771
aa(lp1772
I1772
aa(lp1773
I1773
aa(lp1774
I1774
aa(lp1775
I1775
aa(lp1776
I1776
aa(lp1777
I1777
aa(lp1778
I1778
aa(lp1779
I1779
aa(lp1780
I1780
aa(lp1781
I1781
aa(lp1782
I1782
aa(lp1783
I1783
aa(lp1784
I1784
aa(lp1785
I1785
aa(lp1786
I1786
aa(lp1787
I1787
aa(lp1788
I1788
aa(lp1789
I1789
aa(lp1790
I1790
aa(lp1791
I1791
aa(lp1792
I1792
aa(lp1793
I1793
aa(lp1794
I1794
aa(lp1795
I1795
aa(lp1796
I1796
aa(lp1797
I1797
aa(lp1798
I1798
aa(lp1799
I1799
aa(lp1800
I1800
aa(lp1801
I1801
aa(lp1802
I1802
aa(lp1803
I1803
aa(lp1804
I1804
aa(lp1805
I1805
aa(lp1806
I1806
aa(lp1807
I1807
aa(lp1808
I1808
aa(lp1809
I1809
aa(lp1810
I1810
aa(lp1811
I1811
aa(lp1812
I1812
aa(lp1813
I1813
aa(lp1814
I1814
aa(lp1815
I1815
aa(lp1816
I1816
aa(lp1817
I1817
aa(lp1818
I1818
aa(lp1819
I1819
aa(lp1820
I1820
aa(lp1821
I1821
aa(lp1822
I1822
aa(lp1823
I1823
aa(lp1824
I1824
aa(lp1825
I1825
aa(lp1826
I1826
aa(lp1827
I1827
aa(lp1828
I1828
aa(lp1829
I1829
aa(lp1830
I1830
aa(lp1831
I1831
aa(lp1832
I1832
aa(lp1833
I1833
aa(lp1834
I1834
aa(lp1835
I1835
aa(lp1836
I1836
aa(lp1837
I1837
aa(lp1838
I1838
aa(lp1839
I1839
aa(lp1840
I1840
aa(lp1841
I1841
aa(lp1842
I1842
aa(lp1843
I1843
aa(lp1844
I1844
aa(lp1845
I1845
aa(lp1846
I1846
aa(lp1847
I1847
aa(lp1848
I1848
aa(lp1849
I1849
aa(lp1850
I1850
aa(lp1851
I1851
aa(lp1852
I1852
aa(lp1853
I1853
aa(lp1854
I1854
aa(lp1855
I1855
aa(lp1856
I1856
aa(lp1857
I1857
aa(lp1858
I1858
aa(lp1859
I1859
aa(lp1860
I1860
aa(lp1861
I1861
aa(lp1862
I1862
aa(lp1863
I1863
aa(lp1864
I1864
aa(lp1865
I1865
aa(lp1866
I1866
aa(lp1867
I1867
aa(lp1868
I1868
aa(lp1869
I1869
aa(lp1870
I1870
aa(lp1871
I1871
aa(lp1872
I1872
aa(lp1873
I1873
aa(lp1874
I1874
aa(lp1875
I1875
aa(lp1876
I1876
aa(lp1877
I1877
aa(lp1878
I1878
aa(lp1879
I1879
aa(lp1880
I1880
aa(lp1881
I1881
aa(lp1882
I1882
aa(lp1883
I1883
aa(lp1884
I1884
aa(lp1885
I1885
aa(lp1886
I1886
aa(lp1887
I1887
aa(lp1888
I1888
aa(lp1889
I1889
aa(lp1890
I1890
aa(lp1891
I1891
aa(lp1892
I1892
aa(lp1893
I1893
aa(lp1894
I1894
aa(lp1895
I1895
aa(lp1896
I1896
aa(lp1897
I1897
aa(lp1898
I1898
aa(lp1899
I1899
aa(lp1900
I1900
aa(lp1901
I1901
aa(lp1902
I1902
aa(lp1903
I1903
aa(lp1904
I1904
aa(lp1905
I1905
aa(lp1906
I1906
aa(lp1907
I1907
aa(lp1908
I1908
aa(lp1909
I1909
aa(lp1910
I1910
aa(lp1911
I1911
aa(lp1912
I1912
aa(lp1913
I1913
aa(lp1914
I1914
aa(lp1915
I1915
aa(lp1916
I1916
aa(lp1917
I1917
aa(lp1918
I1918
aa(lp1919
I1919
aa(lp1920
I1920
aa(lp1921
I1921
aa(lp1922
I1922
aa(lp1923
I1923
aa(lp1924
I1924
aa(lp1925
I1925
aa(lp1926
I1926
aa(lp1927
I1927
aa(lp1928
I1928
aa(lp1929
I1929
aa(lp1930
I1930
aa(lp1931
I1931
aa(lp1932
I1932
aa(lp1933
I1933
aa(lp1934
I1934
aa(lp1935
I1935
aa(lp1936
I1936
aa(lp1937
I1937
aa(lp1938
I1938
aa(lp1939
I1939
aa(lp1940
I1940
aa(lp1941
I1941
aa(lp1942
I1942
aa(lp1943
I1943
aa(lp1944
I1944
aa(lp1945
I1945
aa(lp1946
I1946
aa(lp1947
I1947
aa(lp1948
I1948
aa(lp1949
I1949
aa(lp1950
I1950
aa(lp1951
I1951
aa(lp1952
I1952
aa(lp1953
I1953
aa(lp1954
I1954
aa(lp1955
I1955
aa(lp1956
I1956
aa(lp1957
I1957
aa(lp1958
I1958
aa(lp1959
I1959
aa(lp1960
I1960
aa(lp1961
I1961
aa(lp1962
I1962
aa(lp1963
I1963
aa(lp1964
I1964
aa(lp1965
I1965
aa(lp1966
I1966
aa(lp1967
I1967
aa(lp1968
I1968
aa(lp1969
I1969
aa(lp1970
I1970
aa(lp1971
I1971
aa(lp1972
I1972
aa(lp1973
I1973
aa(lp1974
I1974
aa(lp1975
I1975
aa(lp1976
I1976
aa(lp1977
I1977
aa(lp1978
I1978
aa(lp1979
I1979
aa(lp1980
I1980
aa(lp1981
I1981
aa(lp1982
I1982
aa(lp1983
I1983
aa(lp1984
I1984
aa(lp1985
I1985
aa(lp1986
I1986
aa(lp1987
I1987
aa(lp1988
I1988
aa(lp1989
I1989
aa(lp1990
I1990
aa(lp1991
I1991
aa(lp1992
I1992
aa(lp1993
I1993
aa(lp1994
I1994
aa(lp1995
I1995
aa(lp1996
I1996
aa(lp1997
I1997
aa(lp1998
I1998
aa(lp1999
I1999
aa(lp2000
I2000
aa(lp2001
I2001
aa(lp2002
I2002
aa(lp2003
I2003
aa(lp2004
I2004
aa(lp2005
I2005
aa(lp2006
I2006
aa(lp2007
I2007
aa(lp2008
I2008
aa(lp2009
I2009
aa(lp2010
I2010
aa(lp2011
I2011
aa(lp2012
I2012
aa(lp2013
I2013
aa(lp2014
I2014
aa(lp2015
I2015
aa(lp2016
I2016
aa(lp2017
I2017
aa(lp2018
I2018
aa(lp2019
I2019
aa(lp2020
I2020
aa(lp2021
I2021
aa(lp2022
I2022
aa(lp2023
I2023
aa(lp2024
I2024
aa(lp2025
I2025
aa(lp2026
I2026
aa(lp2027
I2027
aa(lp2028
I2028
aa(lp2029
I2029
aa(lp2030
I2030
aa(lp2031
I2031
aa(lp2032
I2032
aa(lp2033
I2033
aa(lp2034
I2034
aa(lp2035
I2035
aa(lp2036
I2036
aa(lp2037
I2037
aa(lp2038
I2038
aa(lp2039
I2039
aa(lp2040
I2040
aa(lp2041
I2041
aa(lp2042
I2042
aa(lp2043
I2043
aa(lp2044
I2044
aa(lp2045
I2045
aa(lp2046
I2046
aa(lp2047
I2047
aa(lp2048
I2048
aa(lp2049
I2049
aa(lp2050
I2050
aa(lp2051
I2051
aa(lp2052
I2052
aa(lp2053
I2053
aa(lp2054
I2054
aa(lp2055
I2055
aa(lp2056
I2056
aa(lp2057
I2057
aa(lp2058
I2058
aa(lp2059
I2059
aa(lp2060
I2060
aa(lp2061
I2061
aa(lp2062
I2062
aa(lp2063
I2063
aa(lp2064
I2064
aa(lp2065
I2065
aa(lp2066
I2066
aa(lp2067
I2067
aa(lp2068
I2068
aa(lp2069
I2069
aa(lp2070
I2070
aa(lp2071
I2071
aa(lp2072
I2072
aa(lp2073
I2073
aa(lp2074
I2074
aa(lp2075
I2075
aa(lp2076
I2076
aa(lp2077
I2077
aa(lp2078
I2078
aa(lp2079
I2079
aa(lp2080
I2080
aa(lp2081
I2081
aa(lp2082
I2082
aa(lp2083
I2083
aa(lp2084
I2084
aa(lp2085
I2085
aa(lp2086
I2086
aa(lp2087
I2087
aa(lp2088
I2088
aa(lp2089
I2089
aa(lp2090
I2090
aa(lp2091
I2091
aa(lp2092
I2092
aa(lp2093
I2093
aa(lp2094
I2094
aa(lp2095
I2095
aa(lp2096
I2096
aa(lp2097
I2097
aa(lp2098
I2098
aa(lp2099
I2099
aa(lp2100
I2100
aa(lp2101
I2101
aa(lp2102
I2102
aa(lp2103
I2103
aa(lp2104
I2104
aa(lp2105
I2105
aa(lp2106
I2106
aa(lp2107
I2107
aa(lp2108
I2108
aa(lp2109
I2109
aa(lp2110
I2110
aa(lp2111
I2111
aa(lp2112
I2112
aa(lp2113
I2113
aa(lp2114
I2114
aa(lp2115
I2115
aa(lp2116
I2116
aa(lp2117
I2117
aa(lp2118
I2118
aa(lp2119
I2119
aa(lp2120
I2120
aa(lp2121
I2121
aa(lp2122
I2122
aa(lp2123
I2123
aa(lp2124
I2124
aa(lp2125
I2125
aa(lp2126
I2126
aa(lp2127
I2127
aa(lp2128
I2128
aa(lp2129
I2129
aa(lp2130
I2130
aa(lp2131
I2131
aa(lp2132
I2132
aa(lp2133
I2133
aa(lp2134
I2134
aa(lp2135
I2135
aa(lp2136
I2136
aa(lp2137
I2137
aa(lp2138
I2138
aa(lp2139
I2139
aa(lp2140
I2140
aa(lp2141
I2141
aa(lp2142
I2142
aa(lp2143
I2143
aa(lp2144
I2144
aa(lp2145
I2145
aa(lp2146
I2146
aa(lp2147
I2147
aa(lp2148
I2148
aa(lp2149
I2149
aa(lp2150
I2150
aa(lp2151
I2151
aa(lp2152
I2152
aa(lp2153
I2153
aa(lp2154
I2154
aa(lp2155
I2155
aa(lp2156
I2156
aa(lp2157
I2157
aa(lp2158
I2158
aa(lp2159
I2159
aa(lp2160
I2160
aa(lp2161
I2161
aa(lp2162
I2162
aa(lp2163
I2163
aa(lp2164
I2164
aa(lp2165
I2165
aa(lp2166
I2166
aa(lp2167
I2167
aa(lp2168
I2168
aa(lp2169
I2169
aa(lp2170
I2170
aa(lp2171
I2171
aa(lp2172
I2172
aa(lp2173
I2173
aa(lp2174
I2174
aa(lp2175
I2175
aa(lp2176
I2176
aa(lp2177
I2177
aa(lp2178
I2178
aa(lp2179
I2179
aa(lp2180
I2180
aa(lp2181
I2181
aa(lp2182
I2182
aa(lp2183
I2183
aa(lp2184
I2184
aa(lp2185
I2185
aa(lp2186
I2186
aa(lp2187
I2187
aa(lp2188
I2188
aa(lp2189
I2189
aa(lp2190
I2190
aa(lp2191
I2191
aa(lp2192
I2192
aa(lp2193
I2193
aa(lp2194
I2194
aa(lp2195
I2195
aa(lp2196
I2196
aa(lp2197
I2197
aa(lp2198
I2198
aa(lp2199
I2199
aa(lp2200
I2200
aa(lp2201
I2201
aa(lp2202
I2202
aa(lp2203
I2203
aa(lp2204
I2204
aa(lp2205
I2205
aa(lp2206
I2206
aa(lp2207
I2207
aa(lp2208
I2208
aa(lp2209
I2209
aa(lp2210
I2210
aa(lp2211
I2211
aa(lp2212
I2212
aa(lp2213
I2213
aa(lp2214
I2214
aa(lp2215
I2215
aa(lp2216
I2216
aa(lp2217
I2217
aa(lp2218
I2218
aa(lp2219
I2219
aa(lp2220
I2220
aa(lp2221
I2221
aa(lp2222
I2222
aa(lp2223
I2223
aa(lp2224
I2224
aa(lp2225
I2225
aa(lp2226
I2226
aa(lp2227
I2227
aa(lp2228
I2228
aa(lp2229
I2229
aa(lp2230
I2230
aa(lp2231
I2231
aa(lp2232
I2232
aa(lp2233
I2233
aa(lp2234
I2234
aa(lp2235
I2235
aa(lp2236
I2236
aa(lp2237
I2237
aa(lp2238
I2238
aa(lp2239
I2239
aa(lp2240
I2240
aa(lp2241
I2241
aa(lp2242
I2242
aa(lp2243
I2243
aa(lp2244
I2244
aa(lp2245
I2245
aa(lp2246
I2246
aa(lp2247
I2247
aa(lp2248
I2248
aa(lp2249
I2249
aa(lp2250
I2250
aa(lp2251
I2251
aa(lp2252
I2252
aa(lp2253
I2253
aa(lp2254
I2254
aa(lp2255
I2255
aa(lp2256
I2256
aa(lp2257
I2257
aa(lp2258
I2258
aa(lp2259
I2259
aa(lp2260
I2260
aa(lp2261
I2261
aa(lp2262
I2262
aa(lp2263
I2263
aa(lp2264
I2264
aa(lp2265
I2265
aa(lp2266
I2266
aa(lp2267
I2267
aa(lp2268
I2268
aa(lp2269
I2269
aa(lp2270
I2270
aa(lp2271
I2271
aa(lp2272
I2272
aa(lp2273
I2273
aa(lp2274
I2274
aa(lp2275
I2275
aa(lp2276
I2276
aa(lp2277
I2277
aa(lp2278
I2278
aa(lp2279
I2279
aa(lp2280
I2280
aa(lp2281
I2281
aa(lp2282
I2282
aa(lp2283
I2283
aa(lp2284
I2284
aa(lp2285
I2285
aa(lp2286
I2286
aa(lp2287
I2287
aa(lp2288
I2288
aa(lp2289
I2289
aa(lp2290
I2290
aa(lp2291
I2291
aa(lp2292
I2292
aa(lp2293
I2293
aa(lp2294
I2294
aa(lp2295
I2295
aa(lp2296
I2296
aa(lp2297
I2297
aa(lp2298
I2298
aa(lp2299
I2299
aa(lp2300
I2300
aa(lp2301
I2301
aa(lp2302
I2302
aa(lp2303
I2303
aa(lp2304
I2304
aa(lp2305
I2305
aa(lp2306
I2306
aa(lp2307
I2307
aa(lp2308
I2308
aa(lp2309
I2309
aa(lp2310
I2310
aa(lp2311
I2311
aa(lp2312
I2312
aa(lp2313
I2313
aa(lp2314
I2314
aa(lp2315
I2315
aa(lp2316
I2316
aa(lp2317
I2317
aa(lp2318
I2318
aa(lp2319
I2319
aa(lp2320
I2320
aa(lp2321
I2321
aa(lp2322
I2322
aa(lp2323
I2323
aa(lp2324
I2324
aa(lp2325
I2325
aa(lp2326
I2326
aa(lp2327
I2327
aa(lp2328
I2328
aa(lp2329
I2329
aa(lp2330
I2330
aa(lp2331
I2331
aa(lp2332
I2332
aa(lp2333
I2333
aa(lp2334
I2334
aa(lp2335
I2335
aa(lp2336
I2336
aa(lp2337
I2337
aa(lp2338
I2338
aa(lp2339
I2339
aa(lp2340
I2340
aa(lp2341
I2341
aa(lp2342
I2342
aa(lp2343
I2343
aa(lp2344
I2344
aa(lp2345
I2345
aa(lp2346
I2346
aa(lp2347
I2347
aa(lp2348
I2348
aa(lp2349
I2349
aa(lp2350
I2350
aa(lp2351
I2351
aa(lp2352
I2352
aa(lp2353
I2353
aa(lp2354
I2354
aa(lp2355
I2355
aa(lp2356
I2356
aa(lp2357
I2357
aa(lp2358
I2358
aa(lp2359
I2359
aa(lp2360
I2360
aa(lp2361
I2361
aa(lp2362
I2362
aa(lp2363
I2363
aa(lp2364
I2364
aa(lp2365
I2365
aa(lp2366
I2366
aa.