(lp0
V
p1
aVpidi
p2
aVhats
p3
aVyellow
p4
aVeverybody
p5
aVsleep
p6
aVhanging
p7
aVcumpleaosss
p8
aVescribo
p9
aVhate
p10
aVforget
p11
aVmucho
p12
aVlooking
p13
aVbuddy
p14
aVsegn
p15
aVotra
p16
aVigual
p17
aVhahhahaha
p18
aVunder
p19
aVteaching
p20
aVsorry
p21
aVcollaborate
p22
aVpromiced
p23
aVrise
p24
aVzarur
p25
aVlibres
p26
aVevery
p27
aVoptimista
p28
aVsueo
p29
aVsuceda
p30
aValoooooooo
p31
aVvast
p32
aVcmo
p33
aVdisturb
p34
aVskills
p35
aVcompanies
p36
aVhaber
p37
aVtambin
p38
aVoooo
p39
aVmath
p40
aVsoundtracks
p41
aVrecuerdas
p42
aVclothes
p43
aVenjoy
p44
aVchew
p45
aVfuera
p46
aVforce
p47
aVtired
p48
aVexcelente
p49
aVcuentas
p50
aVzeronet
p51
aVolvide
p52
aVsecond
p53
aVrent
p54
aVhoice
p55
aVimplemented
p56
aVellas
p57
aVtheory
p58
aVblue
p59
aVhablado
p60
aVchriss
p61
aVtipo
p62
aVfamouse
p63
aVcooking
p64
aVandjar
p65
aVsaludos
p66
aVabove
p67
aVendorse
p68
aVnew
p69
aVnet
p70
aVever
p71
aVtold
p72
aVmessanger
p73
aVotro
p74
aVagreement
p75
aVbatera
p76
aVunfortinately
p77
aVmen
p78
aVcdigo
p79
aVdrew
p80
aVmet
p81
aVstudio
p82
aVdorm
p83
aV100
p84
aVvirtuoso
p85
aVtodooo
p86
aVjajajajaja
p87
aVtaktive
p88
aVexactamente
p89
aVhell
p90
aVkids
p91
aVstudy
p92
aVaku
p93
aVheyyyyyyy
p94
aVfulltime
p95
aVgraciosa
p96
aVsuitable
p97
aVchanges
p98
aVchatear
p99
aVjulio
p100
aVhablan
p101
aVsecure
p102
aVreplace
p103
aVcounty
p104
aVhahahahah
p105
aVboladi
p106
aVhablar
p107
aVhablas
p108
aVaun
p109
aVtopics
p110
aVhahahhah
p111
aVcheating
p112
aVwould
p113
aVkecil
p114
aVapag
p115
aVrecomendaste
p116
aVsymphony
p117
aVmusic
p118
aVcalm
p119
aVltima
p120
aVrecommend
p121
aVltimo
p122
aVtell
p123
aVmusk
p124
aVir
p125
aVsaber
p126
aVsabes
p127
aVhaha
p128
aVhurt
p129
aVcercano
p130
aVglass
p131
aVtesis
p132
aVexcellent
p133
aVjinni
p134
aVhola
p135
aVmust
p136
aVme
p137
aVdynos
p138
aVbunnies
p139
aVma
p140
aVroom
p141
aVwork
p142
aVmi
p143
aVik
p144
aVtemas
p145
aVmu
p146
aVmovies
p147
aVintelligent_personal_assistant
p148
aVms
p149
aVsaddi
p150
aVim
p151
aVmy
p152
aVexample
p153
aVinitial
p154
aVattribution
p155
aVvodka
p156
aVgive
p157
aVdesarrollaron
p158
aVsahabat
p159
aVuah
p160
aVfoods
p161
aVinvitas
p162
aVsmth
p163
aVwant
p164
aVpolticas
p165
aVaaah
p166
aVtimes
p167
aVend
p168
aVeng
p169
aVfeature
p170
aVmachine
p171
aVhow
p172
aVhot
p173
aVanswer
p174
aVnombre
p175
aVbeach
p176
aVcharging
p177
aVpizza
p178
aVadis
p179
aValegro
p180
aVturi
p181
aVpersonalidad
p182
aVquin
p183
aVturing
p184
aVearlier
p185
aVwrong
p186
aVlay
p187
aVanounsed
p188
aV7197797
p189
aVlas
p190
aVtetri
p191
aVispaniyadan
p192
aVdanny
p193
aVpadre
p194
aVthird
p195
aVjahahah
p196
aVrighting
p197
aVhasta
p198
aVmaintain
p199
aValgorithms
p200
aVsouth
p201
aVgoodbye
p202
aVvfx
p203
aVvapor
p204
aVorder
p205
aVegges
p206
aVsalom
p207
aVfeedback
p208
aVenter
p209
aVover
p210
aVhibernation
p211
aVthesis
p212
aVbefore
p213
aVconverstation
p214
aVime
p215
aVfit
p216
aVcanto
p217
aVgente
p218
aVimm
p219
aVwriting
p220
aVbetter
p221
aVuuuuuuh
p222
aVcreo
p223
aVpass
p224
aVcree
p225
aVthen
p226
aVthem
p227
aVsuena
p228
aVcopying
p229
aVvueltas
p230
aVconfuse
p231
aVpray
p232
aVschool
p233
aVcuerno
p234
aVscene
p235
aVbreak
p236
aVband
p237
aVbang
p238
aVthey
p239
aVxamsa
p240
aVgasesdf
p241
aVyordam
p242
aVone
p243
aVltimamente
p244
aVaniq
p245
aVpeligrosos
p246
aVgrammar
p247
aVpeor
p248
aVifttt
p249
aVsumarme
p250
aVfature
p251
aVexplode
p252
aVgood
p253
aVeach
p254
aVdebug
p255
aVwent
p256
aVmean
p257
aVespaa
p258
aVsnakes
p259
aVseries
p260
aVprinciples
p261
aVcommons
p262
aVliterature
p263
aVforgot
p264
aVmarearse
p265
aVsounds
p266
aVclases
p267
aVjajja
p268
aVnetwork
p269
aVgustara
p270
aVgod
p271
aVtried
p272
aVmarotaba
p273
aVre
p274
aVksgb
p275
aVgot
p276
aVfoto
p277
aVpersonal
p278
aVfree
p279
aVbailar
p280
aVtechno
p281
aVrain
p282
aVborred
p283
aVestimate
p284
aVwanted
p285
aVmetallica
p286
aVintentan
p287
aVcreated
p288
aVxxxshaam
p289
aVprobar
p290
aVmessages
p291
aVdays
p292
aVist
p293
aVcreates
p294
aVbears
p295
aVmusicians
p296
aVisn
p297
aVpyuic
p298
aVpodemos
p299
aVhora
p300
aValready
p301
aVprimary
p302
aVhearing
p303
aVanother
p304
aVhood
p305
aVequilibrio
p306
aVservice
p307
aVovejas
p308
aVbonito
p309
aVgirls
p310
aVtango
p311
aVfiction
p312
aVneeded
p313
aVdisappointed
p314
aVtoo
p315
aVlocalhostort
p316
aVtog
p317
aVlisten
p318
aVurban
p319
aVceiling
p320
aVmurder
p321
aVhaga
p322
aVqayerdansan
p323
aVtool
p324
aVtook
p325
aVspeakable
p326
aVdigo
p327
aVhorrible
p328
aVlucas
p329
aVdistance
p330
aVtrek
p331
aVfascina
p332
aVcoward
p333
aVtez
p334
aVproject
p335
aVmatter
p336
aVeverning
p337
aVgatos
p338
aVspeaking
p339
aVgenders
p340
aVfeeling
p341
aVsurem
p342
aVeste
p343
aVastian
p344
aVyoure
p345
aVesta
p346
aVquise
p347
aVrewrite
p348
aVboston
p349
aVmodern
p350
aVmind
p351
aVmine
p352
aVtalking
p353
aVests
p354
aVseen
p355
aVseem
p356
aVmins
p357
aVbeause
p358
aVypu
p359
aVdunno
p360
aVsnow
p361
aVrealy
p362
aVmareado
p363
aVluxury
p364
aVseason
p365
aVgiertz
p366
aVexplanation
p367
aVtunnels
p368
aVeven
p369
aVexactly
p370
aVthough
p371
aVhuh
p372
aVratos
p373
aVqale
p374
aVtranslator
p375
aVahahhaha
p376
aVletter
p377
aVsinger
p378
aVdon
p379
aVdoc
p380
aVrespondes
p381
aVm
p382
aVdog
p383
aVpoints
p384
aVtech
p385
aVyana
p386
aVmensaje
p387
aVcame
p388
aVdou
p389
aVsaying
p390
aVjanish
p391
aVffff
p392
aVgauge
p393
aVayudar
p394
aVsexism
p395
aVanalogue
p396
aVbaik
p397
aVenjoyed
p398
aVmisuku
p399
aVhacerlo
p400
aVbusy
p401
aVlayout
p402
aVmeny
p403
aVvdeos
p404
aVexplain
p405
aVboleh
p406
aVrighteous
p407
aVfavoritos
p408
aV543
p409
aVmeni
p410
aVrich
p411
aVfolks
p412
aVquieres
p413
aVdo
p414
aVsobre
p415
aV400
p416
aVdi
p417
aVde
p418
aVwatch
p419
aVperceive
p420
aVda
p421
aVcopypaste
p422
aVqilaman
p423
aV12
p424
aVhaunted
p425
aVsaiyar
p426
aVdr
p427
aVhaving
p428
aVunfortunately
p429
aVearn
p430
aVvemos
p431
aVestoy
p432
aVmientras
p433
aVacostado
p434
aVvisto
p435
aVcomprar
p436
aVbeb
p437
aVbad
p438
aV410
p439
aVrelease
p440
aVsentido
p441
aVpalov
p442
aVliniers
p443
aVrespond
p444
aVplaystation
p445
aVmandatory
p446
aVcancin
p447
aVfascinating
p448
aVcerca
p449
aVpersonas
p450
aVtesting
p451
aVsupongamos
p452
aVzones
p453
aVdepends
p454
aVdecided
p455
aVdistante
p456
aVfail
p457
aVdisturbing
p458
aVbest
p459
aVseems
p460
aV02
p461
aVeres
p462
aVdantinst
p463
aV07
p464
aV05
p465
aVlots
p466
aVaway
p467
aVwikipedia
p468
aVbahasa
p469
aVartificial
p470
aVqanday
p471
aVokau
p472
aVbien
p473
aVfuture
p474
aVpavos
p475
aVhopefully
p476
aVawak
p477
aVira
p478
aVirc
p479
aVcreaor
p480
aVire
p481
aValguien
p482
aVwe
p483
aVnever
p484
aVterms
p485
aVlalaland
p486
aVconfusion
p487
aVfalleci
p488
aVantes
p489
aVboss
p490
aVseafood
p491
aVhere
p492
aVcensorship
p493
aVnews
p494
aV846753215639
p495
aVrimi
p496
aVimprove
p497
aVclimate
p498
aVcandidate
p499
aVcountry
p500
aVill
p501
aVahora
p502
aVlmadi
p503
aVagainst
p504
aVobuse
p505
aVjonat
p506
aVgames
p507
aVgamer
p508
aVquests
p509
aVprxima
p510
aVcom
p511
aVasked
p512
aVuno
p513
aVimportnt
p514
aVcharacter
p515
aVcenar
p516
aVwider
p517
aVtrust
p518
aVdstim
p519
aVspeak
p520
aVaswer
p521
aVthree
p522
aVbeen
p523
aVhahahhaha
p524
aVbeer
p525
aVmuch
p526
aVinterest
p527
aVbasic
p528
aVexpected
p529
aVcundo
p530
aVrgataman
p531
aVdry
p532
aVlife
p533
aVrecomend
p534
aVrelaxing
p535
aVyusuf
p536
aVxxx
p537
aVwritting
p538
aVslovianic
p539
aVpuedes
p540
aVchile
p541
aVawss
p542
aVgracias
p543
aVn
p544
aVencontrar
p545
aVnear
p546
aVclsico
p547
aVvisit
p548
aVvoice
p549
aVk
p550
aVmistake
p551
aVformas
p552
aVseven
p553
aVunos
p554
aVplayed
p555
aVip
p556
aVsticker
p557
aVtrollface
p558
aVit
p559
aVcant
p560
aVbrake
p561
aVcreepy
p562
aVio
p563
aVin
p564
aVempec
p565
aVid
p566
aVdisappear
p567
aVif
p568
aVsedikit
p569
aVsuggest
p570
aVmake
p571
aVlinked
p572
aVhahah
p573
aVdiferencia
p574
aVdedico
p575
aVseveral
p576
aVzingiz
p577
aVishikayy
p578
aVmemoria
p579
aVsobernheim
p580
aVevil
p581
aVhand
p582
aVkik
p583
aVfridays
p584
aVkim
p585
aVdark
p586
aVdarle
p587
aVjohny
p588
aVpohoto
p589
aVhacer
p590
aVhaces
p591
aValoooooo
p592
aVscenario
p593
aVprograms
p594
aVoohhh
p595
aVmonkeys
p596
aVocean
p597
aVcontact
p598
aVgreatest
p599
aVmother
p600
aVprogramm
p601
aVthe
p602
aVleft
p603
aVkpop
p604
aVjust
p605
aVsangat
p606
aVphoto
p607
aVcoreana
p608
aVhahahha
p609
aVyey
p610
aVproposes
p611
aVthanks
p612
aVhuman
p613
aVyep
p614
aVyes
p615
aVyet
p616
aVgodd
p617
aVprevious
p618
aVhandshake
p619
aVimkoniyatlar
p620
aVham
p621
aVhan
p622
aVmix
p623
aVshoul
p624
aVdant
p625
aVhad
p626
aVhay
p627
aVboard
p628
aVeasy
p629
aVwhatsapp
p630
aVhas
p631
aVhumanity
p632
aVgave
p633
aVcuales
p634
aVappreciated
p635
aVpossible
p636
aVrahmat
p637
aVperfecto
p638
aVaprender
p639
aVdestroy
p640
aVshadow
p641
aVrecordatorios
p642
aVhamsa
p643
aVdreams
p644
aVdesire
p645
aVbro
p646
aV58
p647
aVgift
p648
aV55
p649
aVmanual
p650
aV50
p651
aV53
p652
aVspecific
p653
aVremind
p654
aVprueba
p655
aVllama
p656
aVavatar
p657
aVnight
p658
aVsecurity
p659
aVgadjet
p660
aV14m47s
p661
aVninguno
p662
aVqalaysiz
p663
aVlugar
p664
aVwww
p665
aVright
p666
aVold
p667
aVdeal
p668
aVpeople
p669
aVdead
p670
aVmalaysia
p671
aVelection
p672
aVdear
p673
aVbore
p674
aVqizlarni
p675
aVcordoba
p676
aVkerrisk
p677
aVgapni
p678
aVice
p679
aVcreative
p680
aVqupzilla
p681
aVeverything
p682
aVicy
p683
aVasking
p684
aVumm
p685
aVjalapsan
p686
aVcore
p687
aVidiomas
p688
aValgorithmic
p689
aVcorl
p690
aVxiaobing
p691
aVyoki
p692
aVtetris
p693
aVpost
p694
aVbaho
p695
aVaaahh
p696
aVzur
p697
aVlimitation
p698
aVdiner
p699
aVeat
p700
aVasimov
p701
aVdescarga
p702
aVo
p703
aVdeberamos
p704
aVdinner
p705
aVyaralgansan
p706
aValgo
p707
aVmisma
p708
aVmismo
p709
aVconnected
p710
aVesperar
p711
aVautomatically
p712
aVterminaras
p713
aVwhats
p714
aVerrm
p715
aVsoo
p716
aVson
p717
aVdown
p718
aVppr
p719
aVbeings
p720
aVdonated
p721
aVsoy
p722
aVfrightened
p723
aVistama
p724
aVyuppppp
p725
aVtips
p726
aVyea
p727
aVtiempos
p728
aVsuffice
p729
aVcelever
p730
aVcantik
p731
aVgallery
p732
aVabsolutely
p733
aVquiet
p734
aVeditor
p735
aVway
p736
aVhahhahahaha
p737
aVbollocks
p738
aVwas
p739
aVwar
p740
aVpurposely
p741
aVhappy
p742
aVfork
p743
aVpodrias
p744
aVhead
p745
aVmedium
p746
aVtypo
p747
aVform
p748
aVratito
p749
aVanalyse
p750
aVrgandim
p751
aVseguir
p752
aVbera
p753
aVnavoiy
p754
aVtrue
p755
aVlimitados
p756
aVinside
p757
aVuntil
p758
aVtorturing
p759
aVwhisker
p760
aVsupe
p761
aVdelete
p762
aVpassenger
p763
aVcalcucates
p764
aVproud
p765
aVbitcoins
p766
aVclassic
p767
aVmorada
p768
aVhhhhh
p769
aVgolang
p770
aVtrombone
p771
aVsometime
p772
aVexist
p773
aVelon
p774
aVtimezone
p775
aVwhatsapda
p776
aVface
p777
aVcheck
p778
aVtarde
p779
aVteso
p780
aVleer
p781
aVno
p782
aVoyou
p783
aVstake
p784
aVwhen
p785
aVreality
p786
aVpower
p787
aVny
p788
aVinterested
p789
aVrole
p790
aVtest
p791
aVdevelopers
p792
aVtodas
p793
aVroll
p794
aVpicture
p795
aVqilingan
p796
aVmodels
p797
aVwelcome
p798
aVupdate
p799
aVbelive
p800
aVhahahahahaa
p801
aVwechat
p802
aVprofessional
p803
aVmuslim
p804
aVsiento
p805
aVfor
p806
aVphone
p807
aVester
p808
aVhumanudad
p809
aVwestworld
p810
aVlevantar
p811
aVtext
p812
aVtime
p813
aVbabyyy
p814
aVrestored
p815
aVsongs
p816
aVcares
p817
aVconcept
p818
aVmanaged
p819
aVcomepare
p820
aValternatives
p821
aVdespido
p822
aVinvent
p823
aVmenos
p824
aVsensores
p825
aVrecharge
p826
aVcertainly
p827
aVver
p828
aVves
p829
aVhabitacin
p830
aVdecia
p831
aVtermina
p832
aVgraph
p833
aVvez
p834
aVnetball
p835
aVcloud9
p836
aVdescargar
p837
aVenvironment
p838
aV0
p839
aVcharge
p840
aVdecir
p841
aVrhythm
p842
aVmarks
p843
aVterror
p844
aVveo
p845
aVsing
p846
aVdespert
p847
aVfuiste
p848
aVcould
p849
aVpersona
p850
aVchoice
p851
aVdescargando
p852
aVtanks
p853
aVojos
p854
aVcook
p855
aVword
p856
aVtrouble
p857
aVexact
p858
aVnecesidades
p859
aVcool
p860
aVedad
p861
aVlevel
p862
aVdid
p863
aVturns
p864
aVdig
p865
aVbrother
p866
aVp
p867
aVwarmth
p868
aVllovi
p869
aVtalked
p870
aVsays
p871
aVcosa
p872
aVsigh
p873
aVcyber
p874
aVincapsulated
p875
aVxafa
p876
aVpienso
p877
aVtalker
p878
aVsaya
p879
aVeating
p880
aVresiponsibilities
p881
aVport
p882
aVbaka
p883
aVstressful
p884
aVappear
p885
aVhymi
p886
aVahjhhw
p887
aVdej
p888
aVaburres
p889
aVcurrent
p890
aVsuspect
p891
aVgoes
p892
aVinternational
p893
aVera
p894
aVclera
p895
aVmalinterpreta
p896
aVinstall
p897
aVvzlom
p898
aVpregunte
p899
aVv
p900
aVpregunta
p901
aVunderstanding
p902
aVkamu
p903
aValone
p904
aVaunque
p905
aVchange
p906
aVwait
p907
aVbox
p908
aVboy
p909
aVyessss
p910
aVbrilliant
p911
aVbor
p912
aVbot
p913
aVsuggestion
p914
aVusually
p915
aVweird
p916
aVminecraft
p917
aVmassage
p918
aVtasks
p919
aVuseful
p920
aVasdhxiwbsncosnw
p921
aVprefer
p922
aVnovia
p923
aVlogical
p924
aVhahahahaah
p925
aVlogically
p926
aVfake
p927
aVrarely
p928
aVsweating
p929
aVsiempre
p930
aVraspberry
p931
aVworking
p932
aVprove
p933
aVduda
p934
aVsuper
p935
aVangry
p936
aVdude
p937
aVfalla
p938
aVhuwarghhhh
p939
aVperl
p940
aVabbas
p941
aVkwhatsapp
p942
aVlive
p943
aVhandler
p944
aVandy
p945
aVhttps
p946
aVahhh
p947
aVfilms
p948
aVayt
p949
aVtngah
p950
aVtoday
p951
aVloving
p952
aVood
p953
aVecehhh
p954
aVshare
p955
aVdetrs
p956
aVmalay
p957
aVchocolate
p958
aVespero
p959
aVmejorado
p960
aVojal
p961
aVeffort
p962
aVenva
p963
aVingles
p964
aVcar
p965
aVjuda
p966
aVcau
p967
aVhablarles
p968
aVfantstico
p969
aVvalues
p970
aVcan
p971
aVfoco
p972
aVmaking
p973
aVgerman
p974
aVnumbers
p975
aVheart
p976
aVdedicated
p977
aVrottentomatoes
p978
aVukelele
p979
aVfigure
p980
aVawesome
p981
aVasustas
p982
aVchit
p983
aVtopic
p984
aVheard
p985
aVterrories
p986
aVapunto
p987
aVregalo
p988
aVtoco
p989
aVbluetick
p990
aVwinter
p991
aVdiscussion
p992
aVmeans
p993
aVping
p994
aVcierto
p995
aVviendo
p996
aVwrite
p997
aVtill
p998
aVdispointed
p999
aValgn
p1000
aVllego
p1001
aVbalalaica
p1002
aVanime
p1003
aVmas
p1004
aVdesigner
p1005
aVmau
p1006
aVmay
p1007
aVjustt
p1008
aVspot
p1009
aVsni
p1010
aVapplications
p1011
aVmac
p1012
aVproduce
p1013
aVaos
p1014
aVdate
p1015
aVsuch
p1016
aVsuck
p1017
aVguys
p1018
aVgrow
p1019
aVentiendes
p1020
aVman
p1021
aVjssas
p1022
aVstress
p1023
aVsurfing
p1024
aVnatural
p1025
aVremember
p1026
aVmaybe
p1027
aVsp
p1028
aVsu
p1029
aVaburro
p1030
aVdevs
p1031
aVswitch
p1032
aVso
p1033
aVtalk
p1034
aVcute
p1035
aVbreaking
p1036
aVlsa
p1037
aVindeed
p1038
aVmidnight
p1039
aVdamage
p1040
aVcourse
p1041
aVargued
p1042
aVstill
p1043
aVshirin
p1044
aVforma
p1045
aVgroup
p1046
aVthank
p1047
aVganamos
p1048
aVinteresting
p1049
aVmicrocomputer
p1050
aVjim
p1051
aVtroubles
p1052
aVamazing
p1053
aVforms
p1054
aVplatform
p1055
aVwindow
p1056
aVaffraid
p1057
aVdira
p1058
aVmain
p1059
aVtowards
p1060
aVhappened
p1061
aVlonely
p1062
aVduckduckgo
p1063
aVsmarter
p1064
aVlunch
p1065
aVconquer
p1066
aVhalf
p1067
aVnot
p1068
aVescuchara
p1069
aVnow
p1070
aVtwilight
p1071
aVmaintaining
p1072
aVqt
p1073
aVwont
p1074
aVnama
p1075
aVshouted
p1076
aVname
p1077
aVishika
p1078
aVdidn
p1079
aVsos
p1080
aVmidtek
p1081
aVpopulares
p1082
aVdesde
p1083
aVrock
p1084
aVmuchas
p1085
aVpetnckil
p1086
aVhoy
p1087
aVluandry
p1088
aVledo
p1089
aVel
p1090
aVen
p1091
aVeh
p1092
aVea
p1093
aVyeah
p1094
aVbetrayed
p1095
aVgraphengine
p1096
aVey
p1097
aVzebra
p1098
aVyear
p1099
aVlah
p1100
aVgirl
p1101
aVworried
p1102
aVmonitors
p1103
aVes
p1104
aVescriban
p1105
aVpredefined
p1106
aVnaked
p1107
aVhhhh
p1108
aVopened
p1109
aV3rd
p1110
aV51e
p1111
aVprofil
p1112
aVpoco
p1113
aVseriously
p1114
aVchiqmadi
p1115
aVinternet
p1116
aVcorrect
p1117
aVafter
p1118
aVmonster
p1119
aVstate
p1120
aVboobs
p1121
aVquite
p1122
aVcomplicated
p1123
aVyuri
p1124
aVbesides
p1125
aVtaxed
p1126
aVajar
p1127
aVorg
p1128
aVtienes
p1129
aVcare
p1130
aVmacos
p1131
aVgusta
p1132
aVcouldn
p1133
aVlanguage
p1134
aVaaaah
p1135
aVinsistir
p1136
aVprogramming
p1137
aVhonest
p1138
aVapagar
p1139
aVhypnosis
p1140
aVbutterflies
p1141
aVplace
p1142
aVyuo
p1143
aVsentense
p1144
aVcuntas
p1145
aVhoras
p1146
aVdemoras
p1147
aVyess
p1148
aVthink
p1149
aVfirst
p1150
aVcomelll
p1151
aVoohh
p1152
aVxm
p1153
aVquisiera
p1154
aVpotter
p1155
aVrequirement
p1156
aVxd
p1157
aVyourself
p1158
aVlong
p1159
aVbotmasmi
p1160
aVspanish
p1161
aVmessage
p1162
aVopen
p1163
aVtomorrow
p1164
aVlittle
p1165
aVorbite
p1166
aVchecked
p1167
aVhapppyyyy
p1168
aVstuck
p1169
aVblooks
p1170
aVbite
p1171
aVkarealik
p1172
aVzlashtirmoq
p1173
aVanyone
p1174
aVteacher
p1175
aV2
p1176
aVvideojuegos
p1177
aVfriend
p1178
aVjusticia
p1179
aVeyes
p1180
aVthat
p1181
aVbrains
p1182
aVtaxation
p1183
aVgapiraqolllll
p1184
aVtemprano
p1185
aVpyqt5
p1186
aVreleased
p1187
aVshort
p1188
aVbichos
p1189
aVialah
p1190
aVsents
p1191
aVbromista
p1192
aVgreammer
p1193
aVcopy
p1194
aVthan
p1195
aVboyfriend
p1196
aV11
p1197
aV10
p1198
aV13
p1199
aVbored
p1200
aV15
p1201
aV14
p1202
aV17
p1203
aV16
p1204
aV19
p1205
aV18
p1206
aVwoahhhhh
p1207
aVr
p1208
aVwere
p1209
aVgigantic
p1210
aVencanta
p1211
aVrussia
p1212
aVbrowser
p1213
aVand
p1214
aVfiles
p1215
aVsurname
p1216
aVsan
p1217
aVmontain
p1218
aVpro
p1219
aVargument
p1220
aVsad
p1221
aVdash
p1222
aVanywhen
p1223
aVsay
p1224
aVtushunarli
p1225
aVsuspense
p1226
aVlaburar
p1227
aVbreakfast
p1228
aVsaw
p1229
aVany
p1230
aVserials
p1231
aVhairat
p1232
aVtranslate
p1233
aVideas
p1234
aVnote
p1235
aVtake
p1236
aVperformance
p1237
aVchannel
p1238
aVcaptulo
p1239
aVsurf
p1240
aVbemci
p1241
aVsure
p1242
aVukrainian
p1243
aVarguing
p1244
aVknew
p1245
aVpaid
p1246
aVjajajaja
p1247
aVbeta
p1248
aViln1pzqo8zo
p1249
aVjawabblahhh
p1250
aVdecirte
p1251
aVamerica
p1252
aVwinters
p1253
aVforever
p1254
aVespecially
p1255
aVconsidered
p1256
aVjakarta
p1257
aValguna
p1258
aVlater
p1259
aVsussman
p1260
aVtooth
p1261
aVhear
p1262
aVsenior
p1263
aVorgabmoqchiman
p1264
aVprecise
p1265
aVwalking
p1266
aVmistek
p1267
aVshow
p1268
aVsalido
p1269
aVhacs
p1270
aVusualy
p1271
aVdrawings
p1272
aVhace
p1273
aVaggressive
p1274
aVestos
p1275
aVdata
p1276
aVcakap
p1277
aVground
p1278
aVfend
p1279
aVslow
p1280
aVcoreect
p1281
aVdice
p1282
aVylayman
p1283
aVluego
p1284
aVrealmente
p1285
aVoutside
p1286
aVonly
p1287
aVgoing
p1288
aVhockey
p1289
aVcansas
p1290
aVopensourse
p1291
aVget
p1292
aVjazz
p1293
aVki
p1294
aVssl
p1295
aVcannot
p1296
aVnearly
p1297
aVcheat
p1298
aVpases
p1299
aVinstalled
p1300
aVis
p1301
aVsecondary
p1302
aVqilib
p1303
aVboringg
p1304
aVmorning
p1305
aVjoker
p1306
aVhablarme
p1307
aVstupid
p1308
aVworries
p1309
aVborings
p1310
aVwhere
p1311
aVhusband
p1312
aVwiki
p1313
aVqimoq
p1314
aVseas
p1315
aVwhatsapning
p1316
aVprobarla
p1317
aVcollege
p1318
aVcontar
p1319
aVsurgery
p1320
aVestamos
p1321
aVwonder
p1322
aVyouself
p1323
aVmaana
p1324
aVitu
p1325
aVsosial
p1326
aVdefinite
p1327
aVarzimaydi
p1328
aV3
p1329
aVestar
p1330
aVestas
p1331
aVbetween
p1332
aVreading
p1333
aVozbekchani
p1334
aVekansan
p1335
aVgustan
p1336
aVdinero
p1337
aVtus
p1338
aVstyle
p1339
aVblame
p1340
aVhacerme
p1341
aVjo
p1342
aValoooo
p1343
aVcomo
p1344
aVhurts
p1345
aVarticle
p1346
aVspark
p1347
aVahahahahaha
p1348
aVcome
p1349
aVprat
p1350
aVguitar
p1351
aVtalented
p1352
aVuzbek
p1353
aVmany
p1354
aVaccording
p1355
aVmana
p1356
aVs
p1357
aVpresent
p1358
aVmane
p1359
aVquien
p1360
aVunnie
p1361
aVblackmirror
p1362
aVhowdy
p1363
aVcomes
p1364
aVcomer
p1365
aVoculist
p1366
aVcuestin
p1367
aVmails
p1368
aVcolor
p1369
aVpor
p1370
aVperiod
p1371
aVpop
p1372
aVhahahahahhaha
p1373
aV60
p1374
aViskandari
p1375
aVhagaggagaa
p1376
aV65
p1377
aVlearning
p1378
aVprofe
p1379
aVeibriel
p1380
aVpimples
p1381
aVsave
p1382
aVnovedades
p1383
aVcqn
p1384
aVcapable
p1385
aVprogramado
p1386
aVmark
p1387
aVarte
p1388
aVpeaceful
p1389
aVborders
p1390
aVprototype
p1391
aVhardly
p1392
aV500
p1393
aVcurhat
p1394
aVengine
p1395
aVreaction
p1396
aVchan
p1397
aVescucharla
p1398
aVconozco
p1399
aVphotos
p1400
aVwake
p1401
aVooh
p1402
aVruby
p1403
aVpattie
p1404
aVthose
p1405
aVcase
p1406
aVmyself
p1407
aVkutyapman
p1408
aVthese
p1409
aVsayang
p1410
aVmount
p1411
aVmeh
p1412
aVcasi
p1413
aVkkkkk
p1414
aVproves
p1415
aVfreely
p1416
aVsituation
p1417
aVantony
p1418
aVbuen
p1419
aVive
p1420
aVcoffee
p1421
aVsleeping
p1422
aVsomeone
p1423
aVqtdesigner
p1424
aVreturn
p1425
aVtoothache
p1426
aVstickers
p1427
aVeveryday
p1428
aVworry
p1429
aVdifferent
p1430
aVkhabar
p1431
aVdevelop
p1432
aVauthor
p1433
aVpay
p1434
aVhostname
p1435
aVbowl
p1436
aVsame
p1437
aVgentlemen
p1438
aVya
p1439
aVartstico
p1440
aVhecho
p1441
aVyeahhh
p1442
aVdocument
p1443
aVtodos
p1444
aVweek
p1445
aVcomprende
p1446
aVbussiness
p1447
aVfinish
p1448
aVcleverbot
p1449
aVscreenshot
p1450
aVderecho
p1451
aVvedeo
p1452
aVarctic
p1453
aVtalkive
p1454
aVentonces
p1455
aVpersons
p1456
aVrunning
p1457
aVbigbang
p1458
aVclimbing
p1459
aVtotally
p1460
aVcartoon
p1461
aVitulah
p1462
aVshared
p1463
aVmarkup
p1464
aVwithout
p1465
aVcharged
p1466
aVmorrowind
p1467
aVsummer
p1468
aVbeing
p1469
aVmoney
p1470
aVrest
p1471
aVviolent
p1472
aVspeek
p1473
aVkill
p1474
aVcuenta
p1475
aVplanets
p1476
aVtouch
p1477
aVqolding
p1478
aVdeath
p1479
aVstaging
p1480
aVhint
p1481
aVthinking
p1482
aVcanciones
p1483
aVreccomend
p1484
aVdesktop
p1485
aVblog
p1486
aVcc
p1487
aVlets
p1488
aVsetting
p1489
aVpoems
p1490
aVdihati
p1491
aVunfinished
p1492
aVreal
p1493
aVsanamjon
p1494
aVforestales
p1495
aVaround
p1496
aVlucu
p1497
aVread
p1498
aVcuando
p1499
aVfridge
p1500
aVearly
p1501
aVdari
p1502
aVinsist
p1503
aVlistening
p1504
aVtanto
p1505
aVusing
p1506
aVlady
p1507
aVloraine
p1508
aVpelcula
p1509
aVhidup
p1510
aVcallar
p1511
aVcientficos
p1512
aVserver
p1513
aVcarl
p1514
aVupderstand
p1515
aVt
p1516
aVmanaa
p1517
aVfulfil
p1518
aVdesided
p1519
aVinteresante
p1520
aVjoking
p1521
aVexposed
p1522
aVhahhaha
p1523
aVcentipad
p1524
aVingls
p1525
aVreasons
p1526
aVenergetic
p1527
aVearflaps
p1528
aVwhould
p1529
aVhahahahhaha
p1530
aVdefinir
p1531
aVmoon
p1532
aVvale
p1533
aVcansado
p1534
aVexpressing
p1535
aVdesctop
p1536
aVethos
p1537
aVddd
p1538
aVuddalayapsiz
p1539
aVbusiness
p1540
aVcommunicate
p1541
aVmountain
p1542
aVdices
p1543
aVassemble
p1544
aVthrow
p1545
aVsentirme
p1546
aVoo
p1547
aVon
p1548
aVok
p1549
aVoi
p1550
aVhopkins
p1551
aVfavorita
p1552
aVof
p1553
aVgplv3
p1554
aVfavorite
p1555
aVmeaning
p1556
aValemn
p1557
aVstand
p1558
aVyouve
p1559
aVcarribean
p1560
aVluck
p1561
aVos
p1562
aVor
p1563
aVempresa
p1564
aVpolticos
p1565
aVcommunication
p1566
aV0080ff
p1567
aVyap
p1568
aVhahahahahah
p1569
aVmasalah
p1570
aVshock
p1571
aVapologize
p1572
aVyouu
p1573
aVgomez
p1574
aVnowadays
p1575
aVyour
p1576
aVtrabajar
p1577
aVher
p1578
aVaren
p1579
aVthere
p1580
aVhey
p1581
aVlol
p1582
aVchristianity
p1583
aVstart
p1584
aVcats
p1585
aVemacs
p1586
aVlow
p1587
aVlot
p1588
aVehh
p1589
aVchats
p1590
aVlang
p1591
aVcomplete
p1592
aVenough
p1593
aVbrain
p1594
aVtrying
p1595
aVwith
p1596
aVtittle
p1597
aVfaster
p1598
aVpull
p1599
aVesther
p1600
aVsmalam
p1601
aVdefault
p1602
aV502
p1603
aVequipo
p1604
aVcaractersticas
p1605
aVhojas
p1606
aVtaught
p1607
aVdirty
p1608
aVagree
p1609
aVngrok
p1610
aVdarker
p1611
aVcrear
p1612
aVgone
p1613
aVcyan
p1614
aVohh
p1615
aVcreat
p1616
aVaf
p1617
aVmigrate
p1618
aVah
p1619
aVdescribe
p1620
aVam
p1621
aVal
p1622
aVdeep
p1623
aVan
p1624
aVaq
p1625
aValarm
p1626
aVas
p1627
aVar
p1628
aVtasty
p1629
aVat
p1630
aVfile
p1631
aVhobbies
p1632
aVgirlfriend
p1633
aVwatched
p1634
aVtenga
p1635
aVharu
p1636
aVfilm
p1637
aVpoemas
p1638
aVincorrect
p1639
aVagain
p1640
aVrythmic
p1641
aVgreen
p1642
aVhousework
p1643
aV5
p1644
aVyoz
p1645
aVtristemente
p1646
aVyou
p1647
aVmuuaass
p1648
aVyoq
p1649
aVpoor
p1650
aVhardcoded
p1651
aVseparate
p1652
aVsymbol
p1653
aVbicycles
p1654
aVbeiber
p1655
aVimportant
p1656
aVpeak
p1657
aVterry
p1658
aVervery
p1659
aVbuilding
p1660
aVposible
p1661
aVhmm
p1662
aVcocino
p1663
aVfreand
p1664
aVhello
p1665
aVu
p1666
aValright
p1667
aVstarting
p1668
aVnunca
p1669
aVjaja
p1670
aValo
p1671
aVall
p1672
aVsince
p1673
aVliar
p1674
aVconsider
p1675
aVchinese
p1676
aVmessi
p1677
aVfuente
p1678
aVforbidden
p1679
aVmonth
p1680
aVscreenshoot
p1681
aVmp3
p1682
aVmirar
p1683
aVforgei
p1684
aVfollow
p1685
aVhmmm
p1686
aVsparkle
p1687
aVtv
p1688
aVirrelevant
p1689
aVtu
p1690
aVthursday
p1691
aVhablo
p1692
aVto
p1693
aVtail
p1694
aVprogram
p1695
aVspain
p1696
aVti
p1697
aVte
p1698
aVpresentation
p1699
aVhacelo
p1700
aVhahahah
p1701
aVsound
p1702
aVvers
p1703
aVwoman
p1704
aVestaba
p1705
aVsong
p1706
aVvery
p1707
aVfarhad
p1708
aVhorror
p1709
aVllegue
p1710
aVfocus
p1711
aVpuzzles
p1712
aVhybridize
p1713
aVmuchsimo
p1714
aVfan
p1715
aVdecide
p1716
aVfall
p1717
aVticket
p1718
aVcondition
p1719
aVliten
p1720
aVhye
p1721
aVpelis
p1722
aVlist
p1723
aVd56r8
p1724
aVaveces
p1725
aVharry
p1726
aVmeses
p1727
aVappointment
p1728
aVsituates
p1729
aVvives
p1730
aVsync
p1731
aVsediki
p1732
aVhice
p1733
aVzero
p1734
aVrishika
p1735
aVperspective
p1736
aVplugins
p1737
aViltimosim
p1738
aVcreatures
p1739
aVconscience
p1740
aVwhat
p1741
aVinstrumentos
p1742
aVsun
p1743
aVsection
p1744
aVwhaz
p1745
aVemotions
p1746
aVcrush
p1747
aVusualmente
p1748
aVversion
p1749
aVscientists
p1750
aVlearned
p1751
aVawk
p1752
aVexcept
p1753
aVvamos
p1754
aVfriday
p1755
aVsentient
p1756
aVanswers
p1757
aVhours
p1758
aVshouldn
p1759
aVretraining
p1760
aVoperating
p1761
aVcaroishika
p1762
aVe3honm
p1763
aVbiebs
p1764
aVdooooonyyyyy
p1765
aVsearch
p1766
aVsimpsons
p1767
aVallows
p1768
aVjackie
p1769
aVexperience
p1770
aVarent
p1771
aVsocial
p1772
aVinspires
p1773
aVvia
p1774
aVfamily
p1775
aVricas
p1776
aVsuddenly
p1777
aVescuchar
p1778
aVvim
p1779
aVput
p1780
aVsemester
p1781
aVtrained
p1782
aVbuenas
p1783
aVotros
p1784
aVgosh
p1785
aVasi
p1786
aVemoji
p1787
aVconparison
p1788
aVtakes
p1789
aVanswered
p1790
aVtwo
p1791
aVimagino
p1792
aVcall
p1793
aVrdenes
p1794
aV6
p1795
aVzork
p1796
aVciencia
p1797
aVtrabajo
p1798
aVmore
p1799
aVknoww
p1800
aVcompany
p1801
aVlaundry
p1802
aVriquisima
p1803
aVtested
p1804
aVdomination
p1805
aVcontrolling
p1806
aVbroke
p1807
aVparticular
p1808
aVhablabas
p1809
aVhurry
p1810
aVfunciones
p1811
aVglad
p1812
aVabrar
p1813
aVthaks
p1814
aVmaly
p1815
aVscience
p1816
aVdes
p1817
aVoffended
p1818
aVremain
p1819
aVdel
p1820
aVresources
p1821
aVlearn
p1822
aVmale
p1823
aVbeautiful
p1824
aVpony
p1825
aVexersises
p1826
aVbuensima
p1827
aVsuggestions
p1828
aVaccept
p1829
aVayudarme
p1830
aVexersisen
p1831
aVsertificate
p1832
aVsense
p1833
aVexclude
p1834
aVspecies
p1835
aVinformation
p1836
aVgoal
p1837
aVrather
p1838
aVimminent
p1839
aVacts
p1840
aVcoure
p1841
aVbuenos
p1842
aVoye
p1843
aVlenguaje
p1844
aVokay
p1845
aVplans
p1846
aVrude
p1847
aVemulate
p1848
aVadvice
p1849
aVfrance
p1850
aVpland
p1851
aVpas
p1852
aVjajaja
p1853
aVcoming
p1854
aVzorku
p1855
aVwebhooks
p1856
aVzaybal
p1857
aVlifecycle
p1858
aVa
p1859
aVgithub
p1860
aVtemir
p1861
aVpratchet
p1862
aVanytime
p1863
aVhypnotizes
p1864
aVprobablemente
p1865
aVhobbit
p1866
aVmedia
p1867
aVpleasure
p1868
aVdream
p1869
aVplaying
p1870
aVchicks
p1871
aVgaste
p1872
aVhelp
p1873
aVcomiendo
p1874
aVsoon
p1875
aVita
p1876
aVisnt
p1877
aVpaper
p1878
aVthrough
p1879
aVcommittee
p1880
aVcommitted
p1881
aVexistence
p1882
aVtarjima
p1883
aVits
p1884
aV26
p1885
aV20
p1886
aV21
p1887
aV22
p1888
aV23
p1889
aVallo
p1890
aV28
p1891
aV29
p1892
aVestudiante
p1893
aVactually
p1894
aVlate
p1895
aVdetected
p1896
aVbilasanmi
p1897
aVargentino
p1898
aVsystems
p1899
aVbuscar
p1900
aVstephen
p1901
aVundestand
p1902
aVargentina
p1903
aVmight
p1904
aVhahahahhahaah
p1905
aVfool
p1906
aVwouldn
p1907
aVevening
p1908
aVmotivated
p1909
aVyo
p1910
aVfood
p1911
aVcomunicarte
p1912
aVframework
p1913
aVcet
p1914
aVhahahahahaha
p1915
aVfoot
p1916
aVpensar
p1917
aVokk
p1918
aVventanas
p1919
aVodil
p1920
aVbraindead
p1921
aVemojis
p1922
aValways
p1923
aValbatta
p1924
aVpresented
p1925
aVempiece
p1926
aVstopped
p1927
aVfound
p1928
aVvisitar
p1929
aVfriendship
p1930
aVports
p1931
aVcerveza
p1932
aVeveryone
p1933
aVpirates
p1934
aVnimaga
p1935
aVhouse
p1936
aVenergy
p1937
aVhard
p1938
aVidea
p1939
aVdia
p1940
aVoil
p1941
aVconnect
p1942
aVundertake
p1943
aVoperation
p1944
aVthing
p1945
aVtodo
p1946
aVreally
p1947
aVpickupline
p1948
aVjoin
p1949
aVyout
p1950
aVaserej
p1951
aVtenido
p1952
aVacting
p1953
aVhill
p1954
aV7
p1955
aVsamantha
p1956
aVkerana
p1957
aVissue
p1958
aVassist
p1959
aVupon
p1960
aVintentando
p1961
aVstory
p1962
aVadivina
p1963
aVmmm
p1964
aVreason
p1965
aVmembers
p1966
aVimagine
p1967
aVask
p1968
aVteach
p1969
aVgenerate
p1970
aVasistente
p1971
aVthread
p1972
aVterrible
p1973
aVamarillos
p1974
aVdiaspora
p1975
aVafternoon
p1976
aVexpecting
p1977
aVthreat
p1978
aVuniversidad
p1979
aVdejo
p1980
aVhablamos
p1981
aVfeed
p1982
aVflood
p1983
aVdont
p1984
aVfeel
p1985
aVficcin
p1986
aVnumber
p1987
aVafternon
p1988
aVunexpected
p1989
aVdone
p1990
aVhistorial
p1991
aVslower
p1992
aVmiss
p1993
aVguay
p1994
aVgpl
p1995
aVguess
p1996
aVtemperature
p1997
aVmundo
p1998
aVscript
p1999
aVtogether
p2000
aVrails
p2001
aVstation
p2002
aVstatement
p2003
aVscary
p2004
aVkot
p2005
aVstore
p2006
aVzbekch
p2007
aVhabilidades
p2008
aVimperesed
p2009
aVpara
p2010
aVbehind
p2011
aVmmmm
p2012
aVdentist
p2013
aVboredom
p2014
aVbelieve
p2015
aVconvinced
p2016
aVking
p2017
aVkind
p2018
aVinstruction
p2019
aVyoutu
p2020
aVdogs
p2021
aVaiml
p2022
aVdetermined
p2023
aVrisks
p2024
aVdani
p2025
aVkidding
p2026
aVquesoooo
p2027
aVakan
p2028
aVwasnt
p2029
aVcrazy
p2030
aVmeltdown
p2031
aVaburrido
p2032
aVoption
p2033
aVlie
p2034
aVponer
p2035
aVbuilt
p2036
aVlib
p2037
aVblanco
p2038
aVlicenciatura
p2039
aVself
p2040
aVlik
p2041
aVparece
p2042
aVhappily
p2043
aVponerlo
p2044
aVpasar
p2045
aVuseless
p2046
aVyeahh
p2047
aVextinta
p2048
aVirritated
p2049
aVplay
p2050
aVadded
p2051
aVquote
p2052
aVkan
p2053
aVmenda
p2054
aVmost
p2055
aVaires
p2056
aVlaili
p2057
aVkat
p2058
aVnothing
p2059
aVseasons
p2060
aVfcilmente
p2061
aVextremely
p2062
aV78
p2063
aVvegeta
p2064
aVorlos
p2065
aVaudio
p2066
aVke
p2067
aVmobile
p2068
aVpine64
p2069
aVsometimes
p2070
aVko
p2071
aVclean
p2072
aVkt
p2073
aVngeng
p2074
aVconsisted
p2075
aVmicrosoft
p2076
aVstunned
p2077
aVharakat
p2078
aVfond
p2079
aVcomand
p2080
aVsession
p2081
aVsiri
p2082
aVnaomi
p2083
aVfine
p2084
aVfind
p2085
aVnervous
p2086
aVjugar
p2087
aVfailed
p2088
aVques
p2089
aVexperiment
p2090
aVpretty
p2091
aV8
p2092
aVporque
p2093
aVhablando
p2094
aVhis
p2095
aVofficials
p2096
aVtherefore
p2097
aVcompiled
p2098
aVbanned
p2099
aVexpress
p2100
aVnovelas
p2101
aVfeels
p2102
aVsugerencia
p2103
aVreply
p2104
aVautora
p2105
aVhii
p2106
aVhim
p2107
aVkerak
p2108
aVresolve
p2109
aVolasan
p2110
aVremove
p2111
aVinvestigate
p2112
aVstored
p2113
aVcommon
p2114
aVmuammo
p2115
aVnaughty
p2116
aVverdad
p2117
aVsii
p2118
aVinsane
p2119
aVsdasju
p2120
aVset
p2121
aVser
p2122
aVcreator
p2123
aVintelligence
p2124
aVdddddddddddddddaaaaaaaaaaaaaaaannnnnnnnnnnnnnyyyyyyyyyyyyy
p2125
aVaah
p2126
aVsee
p2127
aVyoze
p2128
aVare
p2129
aVsea
p2130
aVsen
p2131
aVlearns
p2132
aVgasdawe
p2133
aVmovie
p2134
aVwow
p2135
aVcurrently
p2136
aVplease
p2137
aVlibraries
p2138
aVdescalibrarse
p2139
aVwon
p2140
aVfany
p2141
aVdonate
p2142
aVconditions
p2143
aVlaw
p2144
aVsupposed
p2145
aVavailable
p2146
aVsolo
p2147
aVkorea
p2148
aVrecently
p2149
aVresponses
p2150
aVattention
p2151
aVsola
p2152
aVresponse
p2153
aVinterface
p2154
aVboth
p2155
aVc
p2156
aVf
p2157
aVlast
p2158
aVlicense
p2159
aVsino
p2160
aVgustado
p2161
aVbarely
p2162
aVquienes
p2163
aValoo
p2164
aVsurffing
p2165
aVconnection
p2166
aVbecame
p2167
aValot
p2168
aVquiere
p2169
aVbots
p2170
aVwhole
p2171
aVload
p2172
aVpoint
p2173
aVsimple
p2174
aVsweet
p2175
aVyordamingiz0
p2176
aVcommunity
p2177
aVandar
p2178
aVfashion
p2179
aVlikes
p2180
aVlinux
p2181
aVgrabacin
p2182
aVactris
p2183
aVexpensive
p2184
aVyaxshimas
p2185
aVdun
p2186
aVsegala
p2187
aVcreate
p2188
aVaquaintie
p2189
aVdue
p2190
aVstrategy
p2191
aVpc
p2192
aVsecret
p2193
aVterritory
p2194
aVmeeting
p2195
aVwhoa
p2196
aVwoke
p2197
aV4
p2198
aVdialogue
p2199
aVesto
p2200
aV01
p2201
aVsending
p2202
aVfire
p2203
aVgreat
p2204
aVelse
p2205
aVneverhood
p2206
aVwhatever
p2207
aVunderstand
p2208
aVchatter
p2209
aVffamouse
p2210
aVplants
p2211
aVhandling
p2212
aVlook
p2213
aVahah
p2214
aVelections
p2215
aVadmire
p2216
aVtechnical
p2217
aVwhile
p2218
aVfue
p2219
aVropa
p2220
aVsmart
p2221
aVerror
p2222
aVfun
p2223
aVlentejas
p2224
aVwestfall
p2225
aVengineers
p2226
aVhelloo
p2227
aVhoping
p2228
aVmandarme
p2229
aVrfareha
p2230
aVwherever
p2231
aVtomamos
p2232
aVbinding
p2233
aVmycroft
p2234
aVvou
p2235
aVobstacle
p2236
aVterminator
p2237
aVvos
p2238
aVready
p2239
aVleaving
p2240
aVvoy
p2241
aVfunny
p2242
aVhahahahha
p2243
aVitaly
p2244
aVanymore
p2245
aV879
p2246
aVacabo
p2247
aVcert
p2248
aVenglishh
p2249
aVdelicious
p2250
aVwidely
p2251
aVcontestar
p2252
aVadvise
p2253
aVac
p2254
aVhigher
p2255
aVdevelopment
p2256
aVused
p2257
aVsomewhere
p2258
aVyesterday
p2259
aVholidays
p2260
aVrabia
p2261
aVmoment
p2262
aVmoving
p2263
aVcleaning
p2264
aVrobust
p2265
aVnickname
p2266
aVdostim
p2267
aVhows
p2268
aVconversational
p2269
aVqancha
p2270
aVperson
p2271
aVy
p2272
aVspend
p2273
aVthings
p2274
aVopinas
p2275
aVmom
p2276
aVtelegram
p2277
aVclaro
p2278
aVturkic
p2279
aVnuestra
p2280
aVquestions
p2281
aVworld
p2282
aVlove
p2283
aVcontradicting
p2284
aVorganmoqchiman
p2285
aValso
p2286
aVrebecca
p2287
aVsource
p2288
aVoverthinking
p2289
aVparents
p2290
aVlocation
p2291
aVmavjud
p2292
aVacerca
p2293
aVexcited
p2294
aVchess
p2295
aVbin
p2296
aVaustralia
p2297
aVformat
p2298
aVbig
p2299
aVunlimited
p2300
aVtriste
p2301
aVmatters
p2302
aVgame
p2303
aVquest
p2304
aVciencias
p2305
aVremuneran
p2306
aVbit
p2307
aVbir
p2308
aVhahgahaha
p2309
aVprojects
p2310
aVtimezote
p2311
aVknock
p2312
aVnazdika
p2313
aVd
p2314
aVsignal
p2315
aVbukan
p2316
aVignore
p2317
aVcollect
p2318
aVai
p2319
aVcontinue
p2320
aVpopular
p2321
aVfault
p2322
aVessential
p2323
aVponerme
p2324
aVgoogle
p2325
aVfucking
p2326
aVspring
p2327
aV1st
p2328
aVsome
p2329
aVback
p2330
aVtinclimi
p2331
aVseparated
p2332
aVparads
p2333
aVehhg
p2334
aVb2
p2335
aVcurious
p2336
aVcosas
p2337
aVdecision
p2338
aVshall
p2339
aVtendrs
p2340
aVgateway
p2341
aVreligion
p2342
aVingliz
p2343
aVpeli
p2344
aVlardi
p2345
aVromanizacin
p2346
aVprof
p2347
aVepic
p2348
aVeither
p2349
aVbe
p2350
aVrun
p2351
aVubicado
p2352
aVbn
p2353
aVbo
p2354
aVmutch
p2355
aVzombie
p2356
aVbu
p2357
aVhahahahaha
p2358
aVatinaste
p2359
aVtocar
p2360
aVtocas
p2361
aVby
p2362
aVvaccine
p2363
aVreact
p2364
aVgoods
p2365
aVdudo
p2366
aVanything
p2367
aVnetflix
p2368
aVawwww
p2369
aVdeserves
p2370
aVhahahag
p2371
aVhahahaa
p2372
aVnexr
p2373
aVide
p2374
aVwanna
p2375
aVgamma
p2376
aVbisa
p2377
aVseeing
p2378
aVkau
p2379
aVanda
p2380
aVinto
p2381
aVpreferira
p2382
aVservices
p2383
aVpatreon
p2384
aValpha
p2385
aVnobel
p2386
aVmajnun
p2387
aVimagen
p2388
aVimpressed
p2389
aVmadagascar
p2390
aVdalam
p2391
aVpodras
p2392
aVquestion
p2393
aVfast
p2394
aVcustom
p2395
aVclocks
p2396
aVheroku
p2397
aVpodran
p2398
aVkde
p2399
aVpelculas
p2400
aVanalyze
p2401
aVrecomendaras
p2402
aVscared
p2403
aVaqu
p2404
aVwondering
p2405
aVmemory
p2406
aVinvito
p2407
aVilhom
p2408
aVserie
p2409
aVlarry
p2410
aVlink
p2411
aVseria
p2412
aVfamilia
p2413
aVrussian
p2414
aVepisode
p2415
aVsimbol
p2416
aVazov
p2417
aVsdk
p2418
aVinfo
p2419
aVji
p2420
aVcomparison_of_assistants
p2421
aVup
p2422
aVus
p2423
aVur
p2424
aVwindows
p2425
aVuo
p2426
aVun
p2427
aVui
p2428
aVprotocols
p2429
aVflor
p2430
aVsimilar
p2431
aVcalled
p2432
aVorgmode
p2433
aVgenial
p2434
aViltimos
p2435
aVminutes
p2436
aVestilo
p2437
aVdoesn
p2438
aVsingle
p2439
aVtilini
p2440
aVchat
p2441
aVdiversa
p2442
aVrally
p2443
aVcafe
p2444
aVstruggled
p2445
aVcuento
p2446
aVrainbow
p2447
aVparadox
p2448
aVyaxshi
p2449
aVclub
p2450
aVdefinitely
p2451
aVactors
p2452
aVnat
p2453
aVnice
p2454
aVexplaining
p2455
aVdraw
p2456
aVusers
p2457
aVfavourite
p2458
aVproblems
p2459
aVrobots
p2460
aVprepared
p2461
aVwilliam
p2462
aVdevelops
p2463
aVscore
p2464
aVproblema
p2465
aVago
p2466
aVjejeje
p2467
aVe
p2468
aVage
p2469
aVyoutube
p2470
aVgapingni
p2471
aVquedamos
p2472
aV2000
p2473
aVverdes
p2474
aVfar
p2475
aVrequires
p2476
aVknowledges
p2477
aVonce
p2478
aVcode
p2479
aVhahhahah
p2480
aVpercepcin
p2481
aVcargas
p2482
aVresults
p2483
aVexisting
p2484
aVge
p2485
aVquers
p2486
aVpensamos
p2487
aVgo
p2488
aVfaqat
p2489
aVgi
p2490
aVseemed
p2491
aVdetectives
p2492
aVcompose
p2493
aVsdfgby
p2494
aVcuanto
p2495
aVsend
p2496
aVlanguages
p2497
aViskandar
p2498
aVtener
p2499
aVatlas
p2500
aVfriendly
p2501
aVsent
p2502
aVgini
p2503
aVukulele
p2504
aVwebhook
p2505
aVlograras
p2506
aVhappyy
p2507
aVausente
p2508
aVfacebook
p2509
aVpulak
p2510
aVllamo
p2511
aVgender
p2512
aVbutton
p2513
aVrefactored
p2514
aVmichael
p2515
aVtry
p2516
aVthis
p2517
aVhavent
p2518
aVinspection
p2519
aVrecin
p2520
aVconcluded
p2521
aVsomeday
p2522
aVzo
p2523
aVmetafrico
p2524
aVmee
p2525
aVlicensed
p2526
aVdiseada
p2527
aVlocated
p2528
aVvideo
p2529
aVdynamics
p2530
aVcat
p2531
aVinglesa
p2532
aVpiensas
p2533
aVplays
p2534
aVdisponible
p2535
aVrate
p2536
aVincendios
p2537
aVnetworks
p2538
aVaccess
p2539
aVwaiting
p2540
aVindian
p2541
aVexercism
p2542
aVcollins
p2543
aVtechnology
p2544
aVpiensan
p2545
aVbody
p2546
aVchistes
p2547
aVchose
p2548
aVdegree
p2549
aVmitsuko
p2550
aVleo
p2551
aVmitsuku
p2552
aVler
p2553
aVlet
p2554
aVunicornios
p2555
aVothers
p2556
aVluis
p2557
aVprofesor
p2558
aVprefiero
p2559
aVfilosofa
p2560
aVukraine
p2561
aVseni
p2562
aVdesign
p2563
aV33
p2564
aVinvolved
p2565
aV31
p2566
aV30
p2567
aVshades
p2568
aV36
p2569
aV35
p2570
aV34
p2571
aVjalab
p2572
aVpbc_jewish_bot
p2573
aVproducts
p2574
aVeest
p2575
aVopinion
p2576
aVimplement
p2577
aVyoutuber
p2578
aVmakes
p2579
aVthats
p2580
aVdedicas
p2581
aVexaminations
p2582
aVfirefox
p2583
aVapple
p2584
aVegypt
p2585
aVwin
p2586
aVapp
p2587
aVmanage
p2588
aVintegrations
p2589
aVapi
p2590
aVdecrease
p2591
aVunhappy
p2592
aVpalabra
p2593
aVtools
p2594
aVishikay
p2595
aVcloud
p2596
aVuse
p2597
aVusd
p2598
aVfrom
p2599
aVche
p2600
aVcertificate
p2601
aVdoodle
p2602
aVhahahhahaha
p2603
aVnext
p2604
aVfew
p2605
aVthemselves
p2606
aVnecesitaba
p2607
aVsort
p2608
aVclever
p2609
aVstarted
p2610
aVbecomes
p2611
aVabout
p2612
aVzbekcha
p2613
aVishika0
p2614
aVvuelta
p2615
aVbaby
p2616
aVhtc
p2617
aVfosdem
p2618
aVwomen
p2619
aVperder
p2620
aVaccount
p2621
aVexistir
p2622
aVtunnel
p2623
aVoh
p2624
aV0800
p2625
aVpour
p2626
aVovoo
p2627
aVobvious
p2628
aVthin
p2629
aVnarsani
p2630
aVmeet
p2631
aVdidnt
p2632
aVspyder
p2633
aVproof
p2634
aVcontrol
p2635
aVtau
p2636
aVhahahaah
p2637
aVtab
p2638
aVlinks
p2639
aVprocess
p2640
aVlock
p2641
aVcoolness
p2642
aVpurposes
p2643
aVpieces
p2644
aVrigth
p2645
aVsomething
p2646
aVwowww
p2647
aVtal
p2648
aVwonderful
p2649
aVtak
p2650
aVnecesario
p2651
aVsip
p2652
aVusus
p2653
aVsiz
p2654
aVmodos
p2655
aVberasanmi
p2656
aVbrian
p2657
aVescribiendo
p2658
aVbastante
p2659
aVbilingual
p2660
aVcual
p2661
aVinstead
p2662
aVkyrgyz
p2663
aVintelligent
p2664
aVsin
p2665
aVsim
p2666
aVprofile
p2667
aVkickstarter
p2668
aVstop
p2669
aVunnieeeee
p2670
aVact
p2671
aVrdanny
p2672
aVolvides
p2673
aVhahahaha
p2674
aVknowladges
p2675
aVrealized
p2676
aVrobot
p2677
aVprimera
p2678
aVespaol
p2679
aVallow
p2680
aVswimming
p2681
aVranjitish
p2682
aVleast
p2683
aVmove
p2684
aVamable
p2685
aVpoetry
p2686
aVastianos
p2687
aVafterall
p2688
aVmaqsadda
p2689
aVlooks
p2690
aVdespertaste
p2691
aVmenga
p2692
aVgalaxy
p2693
aVperfect
p2694
aV1
p2695
aVcomplicate
p2696
aVla
p2697
aVlo
p2698
aVll
p2699
aVcantara
p2700
aVreinstall
p2701
aVdegrees
p2702
aVchoose
p2703
aVshy
p2704
aVorange
p2705
aVhobby
p2706
aV2017
p2707
aVbye
p2708
aV2012
p2709
aVdad
p2710
aVopino
p2711
aVpython
p2712
aVsimulado
p2713
aVnada
p2714
aVdao
p2715
aVcover
p2716
aVchula
p2717
aVdas
p2718
aVfront
p2719
aVdocumented
p2720
aVday
p2721
aVpresidential
p2722
aVedit
p2723
aVpowerfull
p2724
aVemm
p2725
aVdoesnt
p2726
aVfiddle
p2727
aVmode
p2728
aVtruth
p2729
aVphotoes
p2730
aVpools
p2731
aVstratford
p2732
aVbueno
p2733
aVtwitts
p2734
aVqoshimcha
p2735
aVdoing
p2736
aVbuena
p2737
aVdoind
p2738
aVprogrammed
p2739
aVbsqueda
p2740
aVbooks
p2741
aVour
p2742
aVprogrammer
p2743
aVsexual
p2744
aVismiz
p2745
aVspecial
p2746
aVout
p2747
aVgandon
p2748
aVmatrix
p2749
aVentertainment
p2750
aVres
p2751
aVyup
p2752
aVmis
p2753
aVabdy
p2754
aVmate
p2755
aVmessenger
p2756
aVokey
p2757
aVwich
p2758
aVcause
p2759
aVrespecto
p2760
aVred
p2761
aVbitcongratulations
p2762
aVshut
p2763
aVzbekchaga
p2764
aVdictionary
p2765
aVgreedy
p2766
aVcompletely
p2767
aVque
p2768
aVcompra
p2769
aVtezda
p2770
aVg
p2771
aVfitzpatrick
p2772
aVskateboard
p2773
aVconfident
p2774
aVkeep
p2775
aVconversation
p2776
aVsalta
p2777
aVscare
p2778
aVdeprecates
p2779
aVexam
p2780
aVhumanly
p2781
aVkomputer
p2782
aVpowerful
p2783
aV2018
p2784
aVbjorn
p2785
aVskinte
p2786
aVcomida
p2787
aVhehe
p2788
aVcmida
p2789
aVcintas
p2790
aVlos
p2791
aVordering
p2792
aVunknown
p2793
aVrealidad
p2794
aVsystem
p2795
aVmal
p2796
aVpriority
p2797
aVtheir
p2798
aVinteligencia
p2799
aVmatrimonio
p2800
aVmigth
p2801
aVinterests
p2802
aVstomach
p2803
aVcraziest
p2804
aVcompleted
p2805
aVnobody
p2806
aVdebate
p2807
aVhahahhahaa
p2808
aVtravs
p2809
aVbieber
p2810
aVjuly
p2811
aVsex
p2812
aVhaven
p2813
aVsimulacin
p2814
aVloved
p2815
aVcolleagues
p2816
aVqila
p2817
aVben
p2818
aVbem
p2819
aVcompyuter
p2820
aVboring
p2821
aVpreguntame
p2822
aVbed
p2823
aVblajarr
p2824
aVsourcing
p2825
aVllevas
p2826
aVber
p2827
aVbet
p2828
aVfalse
p2829
aVneer
p2830
aVcomfortable
p2831
aVtonight
p2832
aVbuy
p2833
aVsharp
p2834
aVhave
p2835
aVclose
p2836
aVneed
p2837
aVypur
p2838
aVturn
p2839
aVbordes
p2840
aVismlari
p2841
aVq
p2842
aVstudyyy
p2843
aVafraid
p2844
aVrussians
p2845
aVstudying
p2846
aVhaciendo
p2847
aVable
p2848
aVsi
p2849
aVsinatra
p2850
aVwhick
p2851
aVwhich
p2852
aVlindo
p2853
aVkorean
p2854
aVgreath
p2855
aVxddd
p2856
aVnoches
p2857
aVdeploy
p2858
aVtab2
p2859
aVcollaboration
p2860
aVwho
p2861
aVtypicalfriends
p2862
aVnaranja
p2863
aVexplicar
p2864
aVsaid
p2865
aVeight
p2866
aVvaqt
p2867
aVtranscript
p2868
aVwhy
p2869
aVhambre
p2870
aVdiskworld
p2871
aVmsica
p2872
aVaskar
p2873
aVseguro
p2874
aVrequest
p2875
aVwounder
p2876
aVse
p2877
aVpictures
p2878
aVskinny
p2879
aVpainting
p2880
aV08
p2881
aVfact
p2882
aVimpression
p2883
aVmuy
p2884
aVagreed
p2885
aVanyway
p2886
aVeeeeeeeh
p2887
aVbring
p2888
aVilimitado
p2889
aVpleased
p2890
aVni
p2891
aVhighest
p2892
aVbased
p2893
aVknowledge
p2894
aVtiro
p2895
aVcontrols
p2896
aVshould
p2897
aVbuttons
p2898
aVjam
p2899
aVenvo
p2900
aVlibre
p2901
aVpiano
p2902
aVhandsome
p2903
aVlibro
p2904
aVhope
p2905
aVmeant
p2906
aVdoubting
p2907
aVhandle
p2908
aVlistened
p2909
aVwatching
p2910
aVbeat
p2911
aVlucky
p2912
aVolasanmi
p2913
aVmade
p2914
aVtierra
p2915
aVwords
p2916
aVdudas
p2917
aVyears
p2918
aVroutine
p2919
aVquerra
p2920
aVqu
p2921
aVshu
p2922
aValooooooooooo
p2923
aVgust
p2924
aVxohlagan
p2925
aVganan
p2926
aVmuh
p2927
aVcomics
p2928
aVstuff
p2929
aVshe
p2930
aVqueries
p2931
aVpidaraz
p2932
aVview
p2933
aVguessing
p2934
aVbtw
p2935
aVj
p2936
aVexists
p2937
aVtimezones
p2938
aVhumans
p2939
aVpacket
p2940
aVhumano
p2941
aVcomputer
p2942
aVskynet
p2943
aVomg
p2944
aVfocos
p2945
aVrumag
p2946
aVcloset
p2947
aVrumah
p2948
aVnebula
p2949
aVwritten
p2950
aVcorrectly
p2951
aVcreador
p2952
aVprogress
p2953
aVjoya
p2954
aVemail
p2955
aVbought
p2956
aVyordamiz
p2957
aVjov
p2958
aVopening
p2959
aVjoy
p2960
aVbilan
p2961
aVfooled
p2962
aVhowever
p2963
aVjob
p2964
aVle
p2965
aVapproval
p2966
aVcuttest
p2967
aVselena
p2968
aVdistribution
p2969
aVtls
p2970
aVcommands
p2971
aVaqui
p2972
aVcareer
p2973
aVjoke
p2974
aVtaking
p2975
aVconmigo
p2976
aVminds
p2977
aVetc
p2978
aVnima
p2979
aVproyecto
p2980
aVahhahahh
p2981
aVjokr
p2982
aVlxqt
p2983
aVhehehe
p2984
aVaprendiste
p2985
aVwall
p2986
aVtuesday
p2987
aVteasing
p2988
aVllegado
p2989
aVwalk
p2990
aVgenre
p2991
aVciberntica
p2992
aVcrafted
p2993
aVrespect
p2994
aVdeniy
p2995
aVgitlab
p2996
aVyay
p2997
aVvideos
p2998
aVdnde
p2999
aVcon
p3000
aVquiz
p3001
aVtutor
p3002
aVdrank
p3003
aVkyrgyzstan
p3004
aVhawking
p3005
aVcertain
p3006
aVsenga
p3007
aVyaa
p3008
aVinv
p3009
aVdefine
p3010
aVleague
p3011
aVreleasing
p3012
aVqalay
p3013
aVfinished
p3014
aVqilyapsan
p3015
aVentiendo
p3016
aVstuding
p3017
aVrepetition
p3018
aVrecomends
p3019
aVpainter
p3020
aVqil
p3021
aVyetadi
p3022
aVmulti
p3023
aV2016
p3024
aVabandoned
p3025
aVplain
p3026
aVtengo
p3027
aVwill
p3028
aVagar
p3029
aVtezroq
p3030
aVnesessary
p3031
aVhahaha
p3032
aVa8181
p3033
aVva
p3034
aVaesthetics
p3035
aVve
p3036
aValmost
p3037
aVsurface
p3038
aVsaintists
p3039
aVserlo
p3040
aVsimone
p3041
aValdama
p3042
aVsociales
p3043
aVarabic
p3044
aVdebes
p3045
aVparte
p3046
aVuna
p3047
aVperhaps
p3048
aVcine
p3049
aVdngan
p3050
aVclase
p3051
aVnerd
p3052
aVmember
p3053
aVskrinshot
p3054
aVstrange
p3055
aVdisundestandable
p3056
aVparty
p3057
aVgets
p3058
aVdan
p3059
aVdifficult
p3060
aVtiempo
p3061
aVpractice
p3062
aVmathematic
p3063
aVayudarte
p3064
aVdrink
p3065
aVios
p3066
aVmutual
p3067
aVtambien
p3068
aVstudent
p3069
aVrobotic
p3070
aVheladera
p3071
aVwhale
p3072
aVumpama
p3073
aVestado
p3074
aVoff
p3075
aVsabai
p3076
aVi
p3077
aVbuilder
p3078
aVindonesia
p3079
aVwell
p3080
aVaparte
p3081
aV7l8cnpi4k
p3082
aVthought
p3083
aVpatterns
p3084
aVcommand
p3085
aVenglish
p3086
aVcreators
p3087
aVdrawing
p3088
aVrealised
p3089
aVelectrnica
p3090
aVonda
p3091
aVskils
p3092
aVless
p3093
aVjeje
p3094
aVsources
p3095
aVbatteries
p3096
aVmistakes
p3097
aVmomento
p3098
aVvirtual
p3099
aVbeeing
p3100
aVweb
p3101
aVquiero
p3102
aVirrc
p3103
aVsudan
p3104
aVsky
p3105
aVconversamos
p3106
aVbattery
p3107
aVadd
p3108
aVbook
p3109
aVnor
p3110
aVusage
p3111
aVohhh
p3112
aVnos
p3113
aVmatch
p3114
aVtests
p3115
aVpero
p3116
aVrepoted
p3117
aVknow
p3118
aVhehehehe
p3119
aVimmediately
p3120
aVpython3
p3121
aVdesarrollo
p3122
aVnecessary
p3123
aVlike
p3124
aVlost
p3125
aVemmm
p3126
aVcontestaras
p3127
aVrasmlarini
p3128
aVhaahhaha
p3129
aVpago
p3130
aVbecome
p3131
aVworks
p3132
aVpage
p3133
aVfloodgates
p3134
aVbecause
p3135
aVclassical
p3136
aVotras
p3137
aVdieron
p3138
aVtwitter
p3139
aVtwittet
p3140
aValive
p3141
aVtempered
p3142
aVplatforms
p3143
aVrespuestas
p3144
aVconvey
p3145
aVproper
p3146
aVhome
p3147
aVscares
p3148
aVimposible
p3149
aVest
p3150
aVcharges
p3151
aVpues
p3152
aVese
p3153
aVdoes
p3154
aVmoderated
p3155
aVesa
p3156
aVassuming
p3157
aVeso
p3158
aVpuedo
p3159
aVquvvating
p3160
aVpueda
p3161
aVmanti
p3162
aVpuede
p3163
aVhost
p3164
aValthough
p3165
aVworthy
p3166
aVinstinct
p3167
aVrepair
p3168
aVtelevision
p3169
aVsimpler
p3170
aVsister
p3171
aVuniverso
p3172
aVboyfrirnd
p3173
aVjustin
p3174
aVgetting
p3175
aVabogados
p3176
aVraro
p3177
aVinglizchani
p3178
aVaboud
p3179
aVsweat
p3180
aVajoyib
p3181
aVtongue
p3182
aVmeteorologists
p3183
aVsoftware
p3184
aVequally
p3185
aVown
p3186
aVowe
p3187
aVprimal
p3188
aVfinaly
p3189
aVcatherine
p3190
aVinterstellar
p3191
aVaytdim
p3192
aVpolitical
p3193
aVweather
p3194
aVpromise
p3195
aVhahahahhaa
p3196
aVfemale
p3197
aVroads
p3198
aVtinggal
p3199
aVhmmmmm
p3200
aVsabra
p3201
aVcomido
p3202
aVlegends
p3203
aVpictur
p3204
aVesperando
p3205
aVapps
p3206
aVexectly
p3207
aVintrovert
p3208
aVmuerte
p3209
aVfunction
p3210
aVtricky
p3211
aVhy
p3212
aVtenemos
p3213
aVchatting
p3214
aVhw
p3215
aVbut
p3216
aVhu
p3217
aVdelivery
p3218
aVneutral
p3219
aVhi
p3220
aVgetupdates
p3221
aVgoals
p3222
aVhm
p3223
aV683542168953
p3224
aVha
p3225
aVminnatdorman
p3226
aVbug
p3227
aVmsico
p3228
aVhe
p3229
aVcount
p3230
aVpi
p3231
aVplaces
p3232
aValooo
p3233
aVwhether
p3234
aVwish
p3235
aVwife
p3236
aVsigned
p3237
aVzudlik
p3238
aVbelow
p3239
aVstories
p3240
aVcake
p3241
aVproblem
p3242
aVpsicloga
p3243
aVskating
p3244
aVpin
p3245
aVrasmingni
p3246
aVuniversal
p3247
aVpic
p3248
aVmeaningless
p3249
aVinvadir
p3250
aVfingiendo
p3251
aV97681
p3252
aVmejor
p3253
aVing
p3254
aVhappen
p3255
aVfunctions
p3256
aVfijas
p3257
aV49
p3258
aV47
p3259
aV45
p3260
aV42
p3261
aV40
p3262
aVlately
p3263
aVother
p3264
aVnormal
p3265
aVpueden
p3266
aVwing
p3267
aVcasos
p3268
aVstar
p3269
aVmonday
p3270
aVsooooo
p3271
aVclass
p3272
aVsearched
p3273
aVfrienda
p3274
aVstay
p3275
aVchance
p3276
aVconoces
p3277
aVrhapsody
p3278
aVfriends
p3279
aVfff
p3280
aVsamsung
p3281
aVrule
p3282
aVintentionally
p3283
aVwpuld
p3284
aVmelayu
p3285
a.